ARM GAS  /tmp/ccAaiSfb.s 			page 1


   1              		.cpu cortex-m33
   2              		.arch armv8-m.main
   3              		.fpu fpv5-sp-d16
   4              		.arch_extension dsp
   5              		.eabi_attribute 27, 1
   6              		.eabi_attribute 28, 1
   7              		.eabi_attribute 20, 1
   8              		.eabi_attribute 21, 1
   9              		.eabi_attribute 23, 3
  10              		.eabi_attribute 24, 1
  11              		.eabi_attribute 25, 1
  12              		.eabi_attribute 26, 1
  13              		.eabi_attribute 30, 1
  14              		.eabi_attribute 34, 1
  15              		.eabi_attribute 18, 4
  16              		.file	"network.c"
  17              		.text
  18              	.Ltext0:
  19              		.cfi_sections	.debug_frame
  20              		.file 1 "X-CUBE-AI/App/network.c"
  21              		.section	.text.network_configure_weights,"ax",%progbits
  22              		.align	1
  23              		.syntax unified
  24              		.thumb
  25              		.thumb_func
  27              	network_configure_weights:
  28              	.LVL0:
  29              	.LFB5:
   1:X-CUBE-AI/App/network.c **** /**
   2:X-CUBE-AI/App/network.c ****   ******************************************************************************
   3:X-CUBE-AI/App/network.c ****   * @file    network.c
   4:X-CUBE-AI/App/network.c ****   * @author  AST Embedded Analytics Research Platform
   5:X-CUBE-AI/App/network.c ****   * @date    2026-04-20T16:12:20+0200
   6:X-CUBE-AI/App/network.c ****   * @brief   AI Tool Automatic Code Generator for Embedded NN computing
   7:X-CUBE-AI/App/network.c ****   ******************************************************************************
   8:X-CUBE-AI/App/network.c ****   * @attention
   9:X-CUBE-AI/App/network.c ****   *
  10:X-CUBE-AI/App/network.c ****   * Copyright (c) 2026 STMicroelectronics.
  11:X-CUBE-AI/App/network.c ****   * All rights reserved.
  12:X-CUBE-AI/App/network.c ****   *
  13:X-CUBE-AI/App/network.c ****   * This software is licensed under terms that can be found in the LICENSE file
  14:X-CUBE-AI/App/network.c ****   * in the root directory of this software component.
  15:X-CUBE-AI/App/network.c ****   * If no LICENSE file comes with this software, it is provided AS-IS.
  16:X-CUBE-AI/App/network.c ****   ******************************************************************************
  17:X-CUBE-AI/App/network.c ****   */
  18:X-CUBE-AI/App/network.c **** 
  19:X-CUBE-AI/App/network.c **** 
  20:X-CUBE-AI/App/network.c **** #include "network.h"
  21:X-CUBE-AI/App/network.c **** #include "network_data.h"
  22:X-CUBE-AI/App/network.c **** 
  23:X-CUBE-AI/App/network.c **** #include "ai_platform.h"
  24:X-CUBE-AI/App/network.c **** #include "ai_platform_interface.h"
  25:X-CUBE-AI/App/network.c **** #include "ai_math_helpers.h"
  26:X-CUBE-AI/App/network.c **** 
  27:X-CUBE-AI/App/network.c **** #include "core_common.h"
  28:X-CUBE-AI/App/network.c **** #include "core_convert.h"
  29:X-CUBE-AI/App/network.c **** 
ARM GAS  /tmp/ccAaiSfb.s 			page 2


  30:X-CUBE-AI/App/network.c **** #include "layers.h"
  31:X-CUBE-AI/App/network.c **** 
  32:X-CUBE-AI/App/network.c **** 
  33:X-CUBE-AI/App/network.c **** 
  34:X-CUBE-AI/App/network.c **** #undef AI_NET_OBJ_INSTANCE
  35:X-CUBE-AI/App/network.c **** #define AI_NET_OBJ_INSTANCE g_network
  36:X-CUBE-AI/App/network.c ****  
  37:X-CUBE-AI/App/network.c **** #undef AI_NETWORK_MODEL_SIGNATURE
  38:X-CUBE-AI/App/network.c **** #define AI_NETWORK_MODEL_SIGNATURE     "0x8aae9a236176b6412c08922308950c98"
  39:X-CUBE-AI/App/network.c **** 
  40:X-CUBE-AI/App/network.c **** #ifndef AI_TOOLS_REVISION_ID
  41:X-CUBE-AI/App/network.c **** #define AI_TOOLS_REVISION_ID     ""
  42:X-CUBE-AI/App/network.c **** #endif
  43:X-CUBE-AI/App/network.c **** 
  44:X-CUBE-AI/App/network.c **** #undef AI_TOOLS_DATE_TIME
  45:X-CUBE-AI/App/network.c **** #define AI_TOOLS_DATE_TIME   "2026-04-20T16:12:20+0200"
  46:X-CUBE-AI/App/network.c **** 
  47:X-CUBE-AI/App/network.c **** #undef AI_TOOLS_COMPILE_TIME
  48:X-CUBE-AI/App/network.c **** #define AI_TOOLS_COMPILE_TIME    __DATE__ " " __TIME__
  49:X-CUBE-AI/App/network.c **** 
  50:X-CUBE-AI/App/network.c **** #undef AI_NETWORK_N_BATCHES
  51:X-CUBE-AI/App/network.c **** #define AI_NETWORK_N_BATCHES         (1)
  52:X-CUBE-AI/App/network.c **** 
  53:X-CUBE-AI/App/network.c **** static ai_ptr g_network_activations_map[1] = AI_C_ARRAY_INIT;
  54:X-CUBE-AI/App/network.c **** static ai_ptr g_network_weights_map[1] = AI_C_ARRAY_INIT;
  55:X-CUBE-AI/App/network.c **** 
  56:X-CUBE-AI/App/network.c **** 
  57:X-CUBE-AI/App/network.c **** 
  58:X-CUBE-AI/App/network.c **** /**  Array declarations section  **********************************************/
  59:X-CUBE-AI/App/network.c **** /* Array#0 */
  60:X-CUBE-AI/App/network.c **** AI_ARRAY_OBJ_DECLARE(
  61:X-CUBE-AI/App/network.c ****   serving_default_keras_tensor_1030_output_array, AI_ARRAY_FORMAT_FLOAT|AI_FMT_FLAG_IS_IO,
  62:X-CUBE-AI/App/network.c ****   NULL, NULL, 10, AI_STATIC)
  63:X-CUBE-AI/App/network.c **** 
  64:X-CUBE-AI/App/network.c **** /* Array#1 */
  65:X-CUBE-AI/App/network.c **** AI_ARRAY_OBJ_DECLARE(
  66:X-CUBE-AI/App/network.c ****   gemm_0_output_array, AI_ARRAY_FORMAT_FLOAT,
  67:X-CUBE-AI/App/network.c ****   NULL, NULL, 256, AI_STATIC)
  68:X-CUBE-AI/App/network.c **** 
  69:X-CUBE-AI/App/network.c **** /* Array#2 */
  70:X-CUBE-AI/App/network.c **** AI_ARRAY_OBJ_DECLARE(
  71:X-CUBE-AI/App/network.c ****   nl_0_nl_output_array, AI_ARRAY_FORMAT_FLOAT,
  72:X-CUBE-AI/App/network.c ****   NULL, NULL, 256, AI_STATIC)
  73:X-CUBE-AI/App/network.c **** 
  74:X-CUBE-AI/App/network.c **** /* Array#3 */
  75:X-CUBE-AI/App/network.c **** AI_ARRAY_OBJ_DECLARE(
  76:X-CUBE-AI/App/network.c ****   gemm_1_output_array, AI_ARRAY_FORMAT_FLOAT,
  77:X-CUBE-AI/App/network.c ****   NULL, NULL, 192, AI_STATIC)
  78:X-CUBE-AI/App/network.c **** 
  79:X-CUBE-AI/App/network.c **** /* Array#4 */
  80:X-CUBE-AI/App/network.c **** AI_ARRAY_OBJ_DECLARE(
  81:X-CUBE-AI/App/network.c ****   nl_1_nl_output_array, AI_ARRAY_FORMAT_FLOAT,
  82:X-CUBE-AI/App/network.c ****   NULL, NULL, 192, AI_STATIC)
  83:X-CUBE-AI/App/network.c **** 
  84:X-CUBE-AI/App/network.c **** /* Array#5 */
  85:X-CUBE-AI/App/network.c **** AI_ARRAY_OBJ_DECLARE(
  86:X-CUBE-AI/App/network.c ****   gemm_2_output_array, AI_ARRAY_FORMAT_FLOAT,
ARM GAS  /tmp/ccAaiSfb.s 			page 3


  87:X-CUBE-AI/App/network.c ****   NULL, NULL, 128, AI_STATIC)
  88:X-CUBE-AI/App/network.c **** 
  89:X-CUBE-AI/App/network.c **** /* Array#6 */
  90:X-CUBE-AI/App/network.c **** AI_ARRAY_OBJ_DECLARE(
  91:X-CUBE-AI/App/network.c ****   nl_2_nl_output_array, AI_ARRAY_FORMAT_FLOAT,
  92:X-CUBE-AI/App/network.c ****   NULL, NULL, 128, AI_STATIC)
  93:X-CUBE-AI/App/network.c **** 
  94:X-CUBE-AI/App/network.c **** /* Array#7 */
  95:X-CUBE-AI/App/network.c **** AI_ARRAY_OBJ_DECLARE(
  96:X-CUBE-AI/App/network.c ****   gemm_3_output_array, AI_ARRAY_FORMAT_FLOAT,
  97:X-CUBE-AI/App/network.c ****   NULL, NULL, 96, AI_STATIC)
  98:X-CUBE-AI/App/network.c **** 
  99:X-CUBE-AI/App/network.c **** /* Array#8 */
 100:X-CUBE-AI/App/network.c **** AI_ARRAY_OBJ_DECLARE(
 101:X-CUBE-AI/App/network.c ****   nl_3_nl_output_array, AI_ARRAY_FORMAT_FLOAT,
 102:X-CUBE-AI/App/network.c ****   NULL, NULL, 96, AI_STATIC)
 103:X-CUBE-AI/App/network.c **** 
 104:X-CUBE-AI/App/network.c **** /* Array#9 */
 105:X-CUBE-AI/App/network.c **** AI_ARRAY_OBJ_DECLARE(
 106:X-CUBE-AI/App/network.c ****   gemm_4_output_array, AI_ARRAY_FORMAT_FLOAT,
 107:X-CUBE-AI/App/network.c ****   NULL, NULL, 64, AI_STATIC)
 108:X-CUBE-AI/App/network.c **** 
 109:X-CUBE-AI/App/network.c **** /* Array#10 */
 110:X-CUBE-AI/App/network.c **** AI_ARRAY_OBJ_DECLARE(
 111:X-CUBE-AI/App/network.c ****   nl_4_nl_output_array, AI_ARRAY_FORMAT_FLOAT,
 112:X-CUBE-AI/App/network.c ****   NULL, NULL, 64, AI_STATIC)
 113:X-CUBE-AI/App/network.c **** 
 114:X-CUBE-AI/App/network.c **** /* Array#11 */
 115:X-CUBE-AI/App/network.c **** AI_ARRAY_OBJ_DECLARE(
 116:X-CUBE-AI/App/network.c ****   gemm_5_output_array, AI_ARRAY_FORMAT_FLOAT,
 117:X-CUBE-AI/App/network.c ****   NULL, NULL, 13, AI_STATIC)
 118:X-CUBE-AI/App/network.c **** 
 119:X-CUBE-AI/App/network.c **** /* Array#12 */
 120:X-CUBE-AI/App/network.c **** AI_ARRAY_OBJ_DECLARE(
 121:X-CUBE-AI/App/network.c ****   nl_6_output_array, AI_ARRAY_FORMAT_FLOAT|AI_FMT_FLAG_IS_IO,
 122:X-CUBE-AI/App/network.c ****   NULL, NULL, 13, AI_STATIC)
 123:X-CUBE-AI/App/network.c **** 
 124:X-CUBE-AI/App/network.c **** /* Array#13 */
 125:X-CUBE-AI/App/network.c **** AI_ARRAY_OBJ_DECLARE(
 126:X-CUBE-AI/App/network.c ****   gemm_0_weights_array, AI_ARRAY_FORMAT_FLOAT,
 127:X-CUBE-AI/App/network.c ****   NULL, NULL, 2560, AI_STATIC)
 128:X-CUBE-AI/App/network.c **** 
 129:X-CUBE-AI/App/network.c **** /* Array#14 */
 130:X-CUBE-AI/App/network.c **** AI_ARRAY_OBJ_DECLARE(
 131:X-CUBE-AI/App/network.c ****   gemm_0_bias_array, AI_ARRAY_FORMAT_FLOAT,
 132:X-CUBE-AI/App/network.c ****   NULL, NULL, 256, AI_STATIC)
 133:X-CUBE-AI/App/network.c **** 
 134:X-CUBE-AI/App/network.c **** /* Array#15 */
 135:X-CUBE-AI/App/network.c **** AI_ARRAY_OBJ_DECLARE(
 136:X-CUBE-AI/App/network.c ****   gemm_1_weights_array, AI_ARRAY_FORMAT_FLOAT,
 137:X-CUBE-AI/App/network.c ****   NULL, NULL, 49152, AI_STATIC)
 138:X-CUBE-AI/App/network.c **** 
 139:X-CUBE-AI/App/network.c **** /* Array#16 */
 140:X-CUBE-AI/App/network.c **** AI_ARRAY_OBJ_DECLARE(
 141:X-CUBE-AI/App/network.c ****   gemm_1_bias_array, AI_ARRAY_FORMAT_FLOAT,
 142:X-CUBE-AI/App/network.c ****   NULL, NULL, 192, AI_STATIC)
 143:X-CUBE-AI/App/network.c **** 
ARM GAS  /tmp/ccAaiSfb.s 			page 4


 144:X-CUBE-AI/App/network.c **** /* Array#17 */
 145:X-CUBE-AI/App/network.c **** AI_ARRAY_OBJ_DECLARE(
 146:X-CUBE-AI/App/network.c ****   gemm_2_weights_array, AI_ARRAY_FORMAT_FLOAT,
 147:X-CUBE-AI/App/network.c ****   NULL, NULL, 24576, AI_STATIC)
 148:X-CUBE-AI/App/network.c **** 
 149:X-CUBE-AI/App/network.c **** /* Array#18 */
 150:X-CUBE-AI/App/network.c **** AI_ARRAY_OBJ_DECLARE(
 151:X-CUBE-AI/App/network.c ****   gemm_2_bias_array, AI_ARRAY_FORMAT_FLOAT,
 152:X-CUBE-AI/App/network.c ****   NULL, NULL, 128, AI_STATIC)
 153:X-CUBE-AI/App/network.c **** 
 154:X-CUBE-AI/App/network.c **** /* Array#19 */
 155:X-CUBE-AI/App/network.c **** AI_ARRAY_OBJ_DECLARE(
 156:X-CUBE-AI/App/network.c ****   gemm_3_weights_array, AI_ARRAY_FORMAT_FLOAT,
 157:X-CUBE-AI/App/network.c ****   NULL, NULL, 12288, AI_STATIC)
 158:X-CUBE-AI/App/network.c **** 
 159:X-CUBE-AI/App/network.c **** /* Array#20 */
 160:X-CUBE-AI/App/network.c **** AI_ARRAY_OBJ_DECLARE(
 161:X-CUBE-AI/App/network.c ****   gemm_3_bias_array, AI_ARRAY_FORMAT_FLOAT,
 162:X-CUBE-AI/App/network.c ****   NULL, NULL, 96, AI_STATIC)
 163:X-CUBE-AI/App/network.c **** 
 164:X-CUBE-AI/App/network.c **** /* Array#21 */
 165:X-CUBE-AI/App/network.c **** AI_ARRAY_OBJ_DECLARE(
 166:X-CUBE-AI/App/network.c ****   gemm_4_weights_array, AI_ARRAY_FORMAT_FLOAT,
 167:X-CUBE-AI/App/network.c ****   NULL, NULL, 6144, AI_STATIC)
 168:X-CUBE-AI/App/network.c **** 
 169:X-CUBE-AI/App/network.c **** /* Array#22 */
 170:X-CUBE-AI/App/network.c **** AI_ARRAY_OBJ_DECLARE(
 171:X-CUBE-AI/App/network.c ****   gemm_4_bias_array, AI_ARRAY_FORMAT_FLOAT,
 172:X-CUBE-AI/App/network.c ****   NULL, NULL, 64, AI_STATIC)
 173:X-CUBE-AI/App/network.c **** 
 174:X-CUBE-AI/App/network.c **** /* Array#23 */
 175:X-CUBE-AI/App/network.c **** AI_ARRAY_OBJ_DECLARE(
 176:X-CUBE-AI/App/network.c ****   gemm_5_weights_array, AI_ARRAY_FORMAT_FLOAT,
 177:X-CUBE-AI/App/network.c ****   NULL, NULL, 832, AI_STATIC)
 178:X-CUBE-AI/App/network.c **** 
 179:X-CUBE-AI/App/network.c **** /* Array#24 */
 180:X-CUBE-AI/App/network.c **** AI_ARRAY_OBJ_DECLARE(
 181:X-CUBE-AI/App/network.c ****   gemm_5_bias_array, AI_ARRAY_FORMAT_FLOAT,
 182:X-CUBE-AI/App/network.c ****   NULL, NULL, 13, AI_STATIC)
 183:X-CUBE-AI/App/network.c **** 
 184:X-CUBE-AI/App/network.c **** /**  Tensor declarations section  *********************************************/
 185:X-CUBE-AI/App/network.c **** /* Tensor #0 */
 186:X-CUBE-AI/App/network.c **** AI_TENSOR_OBJ_DECLARE(
 187:X-CUBE-AI/App/network.c ****   gemm_0_bias, AI_STATIC,
 188:X-CUBE-AI/App/network.c ****   0, 0x0,
 189:X-CUBE-AI/App/network.c ****   AI_SHAPE_INIT(4, 1, 256, 1, 1), AI_STRIDE_INIT(4, 4, 4, 1024, 1024),
 190:X-CUBE-AI/App/network.c ****   1, &gemm_0_bias_array, NULL)
 191:X-CUBE-AI/App/network.c **** 
 192:X-CUBE-AI/App/network.c **** /* Tensor #1 */
 193:X-CUBE-AI/App/network.c **** AI_TENSOR_OBJ_DECLARE(
 194:X-CUBE-AI/App/network.c ****   gemm_0_output, AI_STATIC,
 195:X-CUBE-AI/App/network.c ****   1, 0x0,
 196:X-CUBE-AI/App/network.c ****   AI_SHAPE_INIT(4, 1, 256, 1, 1), AI_STRIDE_INIT(4, 4, 4, 1024, 1024),
 197:X-CUBE-AI/App/network.c ****   1, &gemm_0_output_array, NULL)
 198:X-CUBE-AI/App/network.c **** 
 199:X-CUBE-AI/App/network.c **** /* Tensor #2 */
 200:X-CUBE-AI/App/network.c **** AI_TENSOR_OBJ_DECLARE(
ARM GAS  /tmp/ccAaiSfb.s 			page 5


 201:X-CUBE-AI/App/network.c ****   gemm_0_weights, AI_STATIC,
 202:X-CUBE-AI/App/network.c ****   2, 0x0,
 203:X-CUBE-AI/App/network.c ****   AI_SHAPE_INIT(4, 10, 256, 1, 1), AI_STRIDE_INIT(4, 4, 40, 10240, 10240),
 204:X-CUBE-AI/App/network.c ****   1, &gemm_0_weights_array, NULL)
 205:X-CUBE-AI/App/network.c **** 
 206:X-CUBE-AI/App/network.c **** /* Tensor #3 */
 207:X-CUBE-AI/App/network.c **** AI_TENSOR_OBJ_DECLARE(
 208:X-CUBE-AI/App/network.c ****   gemm_1_bias, AI_STATIC,
 209:X-CUBE-AI/App/network.c ****   3, 0x0,
 210:X-CUBE-AI/App/network.c ****   AI_SHAPE_INIT(4, 1, 192, 1, 1), AI_STRIDE_INIT(4, 4, 4, 768, 768),
 211:X-CUBE-AI/App/network.c ****   1, &gemm_1_bias_array, NULL)
 212:X-CUBE-AI/App/network.c **** 
 213:X-CUBE-AI/App/network.c **** /* Tensor #4 */
 214:X-CUBE-AI/App/network.c **** AI_TENSOR_OBJ_DECLARE(
 215:X-CUBE-AI/App/network.c ****   gemm_1_output, AI_STATIC,
 216:X-CUBE-AI/App/network.c ****   4, 0x0,
 217:X-CUBE-AI/App/network.c ****   AI_SHAPE_INIT(4, 1, 192, 1, 1), AI_STRIDE_INIT(4, 4, 4, 768, 768),
 218:X-CUBE-AI/App/network.c ****   1, &gemm_1_output_array, NULL)
 219:X-CUBE-AI/App/network.c **** 
 220:X-CUBE-AI/App/network.c **** /* Tensor #5 */
 221:X-CUBE-AI/App/network.c **** AI_TENSOR_OBJ_DECLARE(
 222:X-CUBE-AI/App/network.c ****   gemm_1_weights, AI_STATIC,
 223:X-CUBE-AI/App/network.c ****   5, 0x0,
 224:X-CUBE-AI/App/network.c ****   AI_SHAPE_INIT(4, 256, 192, 1, 1), AI_STRIDE_INIT(4, 4, 1024, 196608, 196608),
 225:X-CUBE-AI/App/network.c ****   1, &gemm_1_weights_array, NULL)
 226:X-CUBE-AI/App/network.c **** 
 227:X-CUBE-AI/App/network.c **** /* Tensor #6 */
 228:X-CUBE-AI/App/network.c **** AI_TENSOR_OBJ_DECLARE(
 229:X-CUBE-AI/App/network.c ****   gemm_2_bias, AI_STATIC,
 230:X-CUBE-AI/App/network.c ****   6, 0x0,
 231:X-CUBE-AI/App/network.c ****   AI_SHAPE_INIT(4, 1, 128, 1, 1), AI_STRIDE_INIT(4, 4, 4, 512, 512),
 232:X-CUBE-AI/App/network.c ****   1, &gemm_2_bias_array, NULL)
 233:X-CUBE-AI/App/network.c **** 
 234:X-CUBE-AI/App/network.c **** /* Tensor #7 */
 235:X-CUBE-AI/App/network.c **** AI_TENSOR_OBJ_DECLARE(
 236:X-CUBE-AI/App/network.c ****   gemm_2_output, AI_STATIC,
 237:X-CUBE-AI/App/network.c ****   7, 0x0,
 238:X-CUBE-AI/App/network.c ****   AI_SHAPE_INIT(4, 1, 128, 1, 1), AI_STRIDE_INIT(4, 4, 4, 512, 512),
 239:X-CUBE-AI/App/network.c ****   1, &gemm_2_output_array, NULL)
 240:X-CUBE-AI/App/network.c **** 
 241:X-CUBE-AI/App/network.c **** /* Tensor #8 */
 242:X-CUBE-AI/App/network.c **** AI_TENSOR_OBJ_DECLARE(
 243:X-CUBE-AI/App/network.c ****   gemm_2_weights, AI_STATIC,
 244:X-CUBE-AI/App/network.c ****   8, 0x0,
 245:X-CUBE-AI/App/network.c ****   AI_SHAPE_INIT(4, 192, 128, 1, 1), AI_STRIDE_INIT(4, 4, 768, 98304, 98304),
 246:X-CUBE-AI/App/network.c ****   1, &gemm_2_weights_array, NULL)
 247:X-CUBE-AI/App/network.c **** 
 248:X-CUBE-AI/App/network.c **** /* Tensor #9 */
 249:X-CUBE-AI/App/network.c **** AI_TENSOR_OBJ_DECLARE(
 250:X-CUBE-AI/App/network.c ****   gemm_3_bias, AI_STATIC,
 251:X-CUBE-AI/App/network.c ****   9, 0x0,
 252:X-CUBE-AI/App/network.c ****   AI_SHAPE_INIT(4, 1, 96, 1, 1), AI_STRIDE_INIT(4, 4, 4, 384, 384),
 253:X-CUBE-AI/App/network.c ****   1, &gemm_3_bias_array, NULL)
 254:X-CUBE-AI/App/network.c **** 
 255:X-CUBE-AI/App/network.c **** /* Tensor #10 */
 256:X-CUBE-AI/App/network.c **** AI_TENSOR_OBJ_DECLARE(
 257:X-CUBE-AI/App/network.c ****   gemm_3_output, AI_STATIC,
ARM GAS  /tmp/ccAaiSfb.s 			page 6


 258:X-CUBE-AI/App/network.c ****   10, 0x0,
 259:X-CUBE-AI/App/network.c ****   AI_SHAPE_INIT(4, 1, 96, 1, 1), AI_STRIDE_INIT(4, 4, 4, 384, 384),
 260:X-CUBE-AI/App/network.c ****   1, &gemm_3_output_array, NULL)
 261:X-CUBE-AI/App/network.c **** 
 262:X-CUBE-AI/App/network.c **** /* Tensor #11 */
 263:X-CUBE-AI/App/network.c **** AI_TENSOR_OBJ_DECLARE(
 264:X-CUBE-AI/App/network.c ****   gemm_3_weights, AI_STATIC,
 265:X-CUBE-AI/App/network.c ****   11, 0x0,
 266:X-CUBE-AI/App/network.c ****   AI_SHAPE_INIT(4, 128, 96, 1, 1), AI_STRIDE_INIT(4, 4, 512, 49152, 49152),
 267:X-CUBE-AI/App/network.c ****   1, &gemm_3_weights_array, NULL)
 268:X-CUBE-AI/App/network.c **** 
 269:X-CUBE-AI/App/network.c **** /* Tensor #12 */
 270:X-CUBE-AI/App/network.c **** AI_TENSOR_OBJ_DECLARE(
 271:X-CUBE-AI/App/network.c ****   gemm_4_bias, AI_STATIC,
 272:X-CUBE-AI/App/network.c ****   12, 0x0,
 273:X-CUBE-AI/App/network.c ****   AI_SHAPE_INIT(4, 1, 64, 1, 1), AI_STRIDE_INIT(4, 4, 4, 256, 256),
 274:X-CUBE-AI/App/network.c ****   1, &gemm_4_bias_array, NULL)
 275:X-CUBE-AI/App/network.c **** 
 276:X-CUBE-AI/App/network.c **** /* Tensor #13 */
 277:X-CUBE-AI/App/network.c **** AI_TENSOR_OBJ_DECLARE(
 278:X-CUBE-AI/App/network.c ****   gemm_4_output, AI_STATIC,
 279:X-CUBE-AI/App/network.c ****   13, 0x0,
 280:X-CUBE-AI/App/network.c ****   AI_SHAPE_INIT(4, 1, 64, 1, 1), AI_STRIDE_INIT(4, 4, 4, 256, 256),
 281:X-CUBE-AI/App/network.c ****   1, &gemm_4_output_array, NULL)
 282:X-CUBE-AI/App/network.c **** 
 283:X-CUBE-AI/App/network.c **** /* Tensor #14 */
 284:X-CUBE-AI/App/network.c **** AI_TENSOR_OBJ_DECLARE(
 285:X-CUBE-AI/App/network.c ****   gemm_4_weights, AI_STATIC,
 286:X-CUBE-AI/App/network.c ****   14, 0x0,
 287:X-CUBE-AI/App/network.c ****   AI_SHAPE_INIT(4, 96, 64, 1, 1), AI_STRIDE_INIT(4, 4, 384, 24576, 24576),
 288:X-CUBE-AI/App/network.c ****   1, &gemm_4_weights_array, NULL)
 289:X-CUBE-AI/App/network.c **** 
 290:X-CUBE-AI/App/network.c **** /* Tensor #15 */
 291:X-CUBE-AI/App/network.c **** AI_TENSOR_OBJ_DECLARE(
 292:X-CUBE-AI/App/network.c ****   gemm_5_bias, AI_STATIC,
 293:X-CUBE-AI/App/network.c ****   15, 0x0,
 294:X-CUBE-AI/App/network.c ****   AI_SHAPE_INIT(4, 1, 13, 1, 1), AI_STRIDE_INIT(4, 4, 4, 52, 52),
 295:X-CUBE-AI/App/network.c ****   1, &gemm_5_bias_array, NULL)
 296:X-CUBE-AI/App/network.c **** 
 297:X-CUBE-AI/App/network.c **** /* Tensor #16 */
 298:X-CUBE-AI/App/network.c **** AI_TENSOR_OBJ_DECLARE(
 299:X-CUBE-AI/App/network.c ****   gemm_5_output, AI_STATIC,
 300:X-CUBE-AI/App/network.c ****   16, 0x0,
 301:X-CUBE-AI/App/network.c ****   AI_SHAPE_INIT(4, 1, 13, 1, 1), AI_STRIDE_INIT(4, 4, 4, 52, 52),
 302:X-CUBE-AI/App/network.c ****   1, &gemm_5_output_array, NULL)
 303:X-CUBE-AI/App/network.c **** 
 304:X-CUBE-AI/App/network.c **** /* Tensor #17 */
 305:X-CUBE-AI/App/network.c **** AI_TENSOR_OBJ_DECLARE(
 306:X-CUBE-AI/App/network.c ****   gemm_5_weights, AI_STATIC,
 307:X-CUBE-AI/App/network.c ****   17, 0x0,
 308:X-CUBE-AI/App/network.c ****   AI_SHAPE_INIT(4, 64, 13, 1, 1), AI_STRIDE_INIT(4, 4, 256, 3328, 3328),
 309:X-CUBE-AI/App/network.c ****   1, &gemm_5_weights_array, NULL)
 310:X-CUBE-AI/App/network.c **** 
 311:X-CUBE-AI/App/network.c **** /* Tensor #18 */
 312:X-CUBE-AI/App/network.c **** AI_TENSOR_OBJ_DECLARE(
 313:X-CUBE-AI/App/network.c ****   nl_0_nl_output, AI_STATIC,
 314:X-CUBE-AI/App/network.c ****   18, 0x0,
ARM GAS  /tmp/ccAaiSfb.s 			page 7


 315:X-CUBE-AI/App/network.c ****   AI_SHAPE_INIT(4, 1, 256, 1, 1), AI_STRIDE_INIT(4, 4, 4, 1024, 1024),
 316:X-CUBE-AI/App/network.c ****   1, &nl_0_nl_output_array, NULL)
 317:X-CUBE-AI/App/network.c **** 
 318:X-CUBE-AI/App/network.c **** /* Tensor #19 */
 319:X-CUBE-AI/App/network.c **** AI_TENSOR_OBJ_DECLARE(
 320:X-CUBE-AI/App/network.c ****   nl_1_nl_output, AI_STATIC,
 321:X-CUBE-AI/App/network.c ****   19, 0x0,
 322:X-CUBE-AI/App/network.c ****   AI_SHAPE_INIT(4, 1, 192, 1, 1), AI_STRIDE_INIT(4, 4, 4, 768, 768),
 323:X-CUBE-AI/App/network.c ****   1, &nl_1_nl_output_array, NULL)
 324:X-CUBE-AI/App/network.c **** 
 325:X-CUBE-AI/App/network.c **** /* Tensor #20 */
 326:X-CUBE-AI/App/network.c **** AI_TENSOR_OBJ_DECLARE(
 327:X-CUBE-AI/App/network.c ****   nl_2_nl_output, AI_STATIC,
 328:X-CUBE-AI/App/network.c ****   20, 0x0,
 329:X-CUBE-AI/App/network.c ****   AI_SHAPE_INIT(4, 1, 128, 1, 1), AI_STRIDE_INIT(4, 4, 4, 512, 512),
 330:X-CUBE-AI/App/network.c ****   1, &nl_2_nl_output_array, NULL)
 331:X-CUBE-AI/App/network.c **** 
 332:X-CUBE-AI/App/network.c **** /* Tensor #21 */
 333:X-CUBE-AI/App/network.c **** AI_TENSOR_OBJ_DECLARE(
 334:X-CUBE-AI/App/network.c ****   nl_3_nl_output, AI_STATIC,
 335:X-CUBE-AI/App/network.c ****   21, 0x0,
 336:X-CUBE-AI/App/network.c ****   AI_SHAPE_INIT(4, 1, 96, 1, 1), AI_STRIDE_INIT(4, 4, 4, 384, 384),
 337:X-CUBE-AI/App/network.c ****   1, &nl_3_nl_output_array, NULL)
 338:X-CUBE-AI/App/network.c **** 
 339:X-CUBE-AI/App/network.c **** /* Tensor #22 */
 340:X-CUBE-AI/App/network.c **** AI_TENSOR_OBJ_DECLARE(
 341:X-CUBE-AI/App/network.c ****   nl_4_nl_output, AI_STATIC,
 342:X-CUBE-AI/App/network.c ****   22, 0x0,
 343:X-CUBE-AI/App/network.c ****   AI_SHAPE_INIT(4, 1, 64, 1, 1), AI_STRIDE_INIT(4, 4, 4, 256, 256),
 344:X-CUBE-AI/App/network.c ****   1, &nl_4_nl_output_array, NULL)
 345:X-CUBE-AI/App/network.c **** 
 346:X-CUBE-AI/App/network.c **** /* Tensor #23 */
 347:X-CUBE-AI/App/network.c **** AI_TENSOR_OBJ_DECLARE(
 348:X-CUBE-AI/App/network.c ****   nl_6_output, AI_STATIC,
 349:X-CUBE-AI/App/network.c ****   23, 0x0,
 350:X-CUBE-AI/App/network.c ****   AI_SHAPE_INIT(4, 1, 13, 1, 1), AI_STRIDE_INIT(4, 4, 4, 52, 52),
 351:X-CUBE-AI/App/network.c ****   1, &nl_6_output_array, NULL)
 352:X-CUBE-AI/App/network.c **** 
 353:X-CUBE-AI/App/network.c **** /* Tensor #24 */
 354:X-CUBE-AI/App/network.c **** AI_TENSOR_OBJ_DECLARE(
 355:X-CUBE-AI/App/network.c ****   serving_default_keras_tensor_1030_output, AI_STATIC,
 356:X-CUBE-AI/App/network.c ****   24, 0x0,
 357:X-CUBE-AI/App/network.c ****   AI_SHAPE_INIT(4, 1, 10, 1, 1), AI_STRIDE_INIT(4, 4, 4, 40, 40),
 358:X-CUBE-AI/App/network.c ****   1, &serving_default_keras_tensor_1030_output_array, NULL)
 359:X-CUBE-AI/App/network.c **** 
 360:X-CUBE-AI/App/network.c **** 
 361:X-CUBE-AI/App/network.c **** 
 362:X-CUBE-AI/App/network.c **** /**  Layer declarations section  **********************************************/
 363:X-CUBE-AI/App/network.c **** 
 364:X-CUBE-AI/App/network.c **** 
 365:X-CUBE-AI/App/network.c **** AI_TENSOR_CHAIN_OBJ_DECLARE(
 366:X-CUBE-AI/App/network.c ****   nl_6_chain, AI_STATIC_CONST, 4,
 367:X-CUBE-AI/App/network.c ****   AI_TENSOR_LIST_OBJ_INIT(AI_FLAG_NONE, 1, &gemm_5_output),
 368:X-CUBE-AI/App/network.c ****   AI_TENSOR_LIST_OBJ_INIT(AI_FLAG_NONE, 1, &nl_6_output),
 369:X-CUBE-AI/App/network.c ****   AI_TENSOR_LIST_OBJ_EMPTY,
 370:X-CUBE-AI/App/network.c ****   AI_TENSOR_LIST_OBJ_EMPTY
 371:X-CUBE-AI/App/network.c **** )
ARM GAS  /tmp/ccAaiSfb.s 			page 8


 372:X-CUBE-AI/App/network.c **** 
 373:X-CUBE-AI/App/network.c **** AI_LAYER_OBJ_DECLARE(
 374:X-CUBE-AI/App/network.c ****   nl_6_layer, 6,
 375:X-CUBE-AI/App/network.c ****   SM_TYPE, 0x0, NULL,
 376:X-CUBE-AI/App/network.c ****   sm, forward_sm,
 377:X-CUBE-AI/App/network.c ****   &nl_6_chain,
 378:X-CUBE-AI/App/network.c ****   NULL, &nl_6_layer, AI_STATIC, 
 379:X-CUBE-AI/App/network.c ****   .nl_params = NULL, 
 380:X-CUBE-AI/App/network.c ****   .axis = AI_SHAPE_CHANNEL, 
 381:X-CUBE-AI/App/network.c **** )
 382:X-CUBE-AI/App/network.c **** 
 383:X-CUBE-AI/App/network.c **** AI_TENSOR_CHAIN_OBJ_DECLARE(
 384:X-CUBE-AI/App/network.c ****   gemm_5_chain, AI_STATIC_CONST, 4,
 385:X-CUBE-AI/App/network.c ****   AI_TENSOR_LIST_OBJ_INIT(AI_FLAG_NONE, 1, &nl_4_nl_output),
 386:X-CUBE-AI/App/network.c ****   AI_TENSOR_LIST_OBJ_INIT(AI_FLAG_NONE, 1, &gemm_5_output),
 387:X-CUBE-AI/App/network.c ****   AI_TENSOR_LIST_OBJ_INIT(AI_FLAG_NONE, 2, &gemm_5_weights, &gemm_5_bias),
 388:X-CUBE-AI/App/network.c ****   AI_TENSOR_LIST_OBJ_EMPTY
 389:X-CUBE-AI/App/network.c **** )
 390:X-CUBE-AI/App/network.c **** 
 391:X-CUBE-AI/App/network.c **** AI_LAYER_OBJ_DECLARE(
 392:X-CUBE-AI/App/network.c ****   gemm_5_layer, 5,
 393:X-CUBE-AI/App/network.c ****   DENSE_TYPE, 0x0, NULL,
 394:X-CUBE-AI/App/network.c ****   dense, forward_dense,
 395:X-CUBE-AI/App/network.c ****   &gemm_5_chain,
 396:X-CUBE-AI/App/network.c ****   NULL, &nl_6_layer, AI_STATIC, 
 397:X-CUBE-AI/App/network.c **** )
 398:X-CUBE-AI/App/network.c **** 
 399:X-CUBE-AI/App/network.c **** AI_TENSOR_CHAIN_OBJ_DECLARE(
 400:X-CUBE-AI/App/network.c ****   nl_4_nl_chain, AI_STATIC_CONST, 4,
 401:X-CUBE-AI/App/network.c ****   AI_TENSOR_LIST_OBJ_INIT(AI_FLAG_NONE, 1, &gemm_4_output),
 402:X-CUBE-AI/App/network.c ****   AI_TENSOR_LIST_OBJ_INIT(AI_FLAG_NONE, 1, &nl_4_nl_output),
 403:X-CUBE-AI/App/network.c ****   AI_TENSOR_LIST_OBJ_EMPTY,
 404:X-CUBE-AI/App/network.c ****   AI_TENSOR_LIST_OBJ_EMPTY
 405:X-CUBE-AI/App/network.c **** )
 406:X-CUBE-AI/App/network.c **** 
 407:X-CUBE-AI/App/network.c **** AI_LAYER_OBJ_DECLARE(
 408:X-CUBE-AI/App/network.c ****   nl_4_nl_layer, 4,
 409:X-CUBE-AI/App/network.c ****   NL_TYPE, 0x0, NULL,
 410:X-CUBE-AI/App/network.c ****   nl, forward_relu,
 411:X-CUBE-AI/App/network.c ****   &nl_4_nl_chain,
 412:X-CUBE-AI/App/network.c ****   NULL, &gemm_5_layer, AI_STATIC, 
 413:X-CUBE-AI/App/network.c ****   .nl_params = NULL, 
 414:X-CUBE-AI/App/network.c **** )
 415:X-CUBE-AI/App/network.c **** 
 416:X-CUBE-AI/App/network.c **** AI_TENSOR_CHAIN_OBJ_DECLARE(
 417:X-CUBE-AI/App/network.c ****   gemm_4_chain, AI_STATIC_CONST, 4,
 418:X-CUBE-AI/App/network.c ****   AI_TENSOR_LIST_OBJ_INIT(AI_FLAG_NONE, 1, &nl_3_nl_output),
 419:X-CUBE-AI/App/network.c ****   AI_TENSOR_LIST_OBJ_INIT(AI_FLAG_NONE, 1, &gemm_4_output),
 420:X-CUBE-AI/App/network.c ****   AI_TENSOR_LIST_OBJ_INIT(AI_FLAG_NONE, 2, &gemm_4_weights, &gemm_4_bias),
 421:X-CUBE-AI/App/network.c ****   AI_TENSOR_LIST_OBJ_EMPTY
 422:X-CUBE-AI/App/network.c **** )
 423:X-CUBE-AI/App/network.c **** 
 424:X-CUBE-AI/App/network.c **** AI_LAYER_OBJ_DECLARE(
 425:X-CUBE-AI/App/network.c ****   gemm_4_layer, 4,
 426:X-CUBE-AI/App/network.c ****   DENSE_TYPE, 0x0, NULL,
 427:X-CUBE-AI/App/network.c ****   dense, forward_dense,
 428:X-CUBE-AI/App/network.c ****   &gemm_4_chain,
ARM GAS  /tmp/ccAaiSfb.s 			page 9


 429:X-CUBE-AI/App/network.c ****   NULL, &nl_4_nl_layer, AI_STATIC, 
 430:X-CUBE-AI/App/network.c **** )
 431:X-CUBE-AI/App/network.c **** 
 432:X-CUBE-AI/App/network.c **** AI_TENSOR_CHAIN_OBJ_DECLARE(
 433:X-CUBE-AI/App/network.c ****   nl_3_nl_chain, AI_STATIC_CONST, 4,
 434:X-CUBE-AI/App/network.c ****   AI_TENSOR_LIST_OBJ_INIT(AI_FLAG_NONE, 1, &gemm_3_output),
 435:X-CUBE-AI/App/network.c ****   AI_TENSOR_LIST_OBJ_INIT(AI_FLAG_NONE, 1, &nl_3_nl_output),
 436:X-CUBE-AI/App/network.c ****   AI_TENSOR_LIST_OBJ_EMPTY,
 437:X-CUBE-AI/App/network.c ****   AI_TENSOR_LIST_OBJ_EMPTY
 438:X-CUBE-AI/App/network.c **** )
 439:X-CUBE-AI/App/network.c **** 
 440:X-CUBE-AI/App/network.c **** AI_LAYER_OBJ_DECLARE(
 441:X-CUBE-AI/App/network.c ****   nl_3_nl_layer, 3,
 442:X-CUBE-AI/App/network.c ****   NL_TYPE, 0x0, NULL,
 443:X-CUBE-AI/App/network.c ****   nl, forward_relu,
 444:X-CUBE-AI/App/network.c ****   &nl_3_nl_chain,
 445:X-CUBE-AI/App/network.c ****   NULL, &gemm_4_layer, AI_STATIC, 
 446:X-CUBE-AI/App/network.c ****   .nl_params = NULL, 
 447:X-CUBE-AI/App/network.c **** )
 448:X-CUBE-AI/App/network.c **** 
 449:X-CUBE-AI/App/network.c **** AI_TENSOR_CHAIN_OBJ_DECLARE(
 450:X-CUBE-AI/App/network.c ****   gemm_3_chain, AI_STATIC_CONST, 4,
 451:X-CUBE-AI/App/network.c ****   AI_TENSOR_LIST_OBJ_INIT(AI_FLAG_NONE, 1, &nl_2_nl_output),
 452:X-CUBE-AI/App/network.c ****   AI_TENSOR_LIST_OBJ_INIT(AI_FLAG_NONE, 1, &gemm_3_output),
 453:X-CUBE-AI/App/network.c ****   AI_TENSOR_LIST_OBJ_INIT(AI_FLAG_NONE, 2, &gemm_3_weights, &gemm_3_bias),
 454:X-CUBE-AI/App/network.c ****   AI_TENSOR_LIST_OBJ_EMPTY
 455:X-CUBE-AI/App/network.c **** )
 456:X-CUBE-AI/App/network.c **** 
 457:X-CUBE-AI/App/network.c **** AI_LAYER_OBJ_DECLARE(
 458:X-CUBE-AI/App/network.c ****   gemm_3_layer, 3,
 459:X-CUBE-AI/App/network.c ****   DENSE_TYPE, 0x0, NULL,
 460:X-CUBE-AI/App/network.c ****   dense, forward_dense,
 461:X-CUBE-AI/App/network.c ****   &gemm_3_chain,
 462:X-CUBE-AI/App/network.c ****   NULL, &nl_3_nl_layer, AI_STATIC, 
 463:X-CUBE-AI/App/network.c **** )
 464:X-CUBE-AI/App/network.c **** 
 465:X-CUBE-AI/App/network.c **** AI_TENSOR_CHAIN_OBJ_DECLARE(
 466:X-CUBE-AI/App/network.c ****   nl_2_nl_chain, AI_STATIC_CONST, 4,
 467:X-CUBE-AI/App/network.c ****   AI_TENSOR_LIST_OBJ_INIT(AI_FLAG_NONE, 1, &gemm_2_output),
 468:X-CUBE-AI/App/network.c ****   AI_TENSOR_LIST_OBJ_INIT(AI_FLAG_NONE, 1, &nl_2_nl_output),
 469:X-CUBE-AI/App/network.c ****   AI_TENSOR_LIST_OBJ_EMPTY,
 470:X-CUBE-AI/App/network.c ****   AI_TENSOR_LIST_OBJ_EMPTY
 471:X-CUBE-AI/App/network.c **** )
 472:X-CUBE-AI/App/network.c **** 
 473:X-CUBE-AI/App/network.c **** AI_LAYER_OBJ_DECLARE(
 474:X-CUBE-AI/App/network.c ****   nl_2_nl_layer, 2,
 475:X-CUBE-AI/App/network.c ****   NL_TYPE, 0x0, NULL,
 476:X-CUBE-AI/App/network.c ****   nl, forward_relu,
 477:X-CUBE-AI/App/network.c ****   &nl_2_nl_chain,
 478:X-CUBE-AI/App/network.c ****   NULL, &gemm_3_layer, AI_STATIC, 
 479:X-CUBE-AI/App/network.c ****   .nl_params = NULL, 
 480:X-CUBE-AI/App/network.c **** )
 481:X-CUBE-AI/App/network.c **** 
 482:X-CUBE-AI/App/network.c **** AI_TENSOR_CHAIN_OBJ_DECLARE(
 483:X-CUBE-AI/App/network.c ****   gemm_2_chain, AI_STATIC_CONST, 4,
 484:X-CUBE-AI/App/network.c ****   AI_TENSOR_LIST_OBJ_INIT(AI_FLAG_NONE, 1, &nl_1_nl_output),
 485:X-CUBE-AI/App/network.c ****   AI_TENSOR_LIST_OBJ_INIT(AI_FLAG_NONE, 1, &gemm_2_output),
ARM GAS  /tmp/ccAaiSfb.s 			page 10


 486:X-CUBE-AI/App/network.c ****   AI_TENSOR_LIST_OBJ_INIT(AI_FLAG_NONE, 2, &gemm_2_weights, &gemm_2_bias),
 487:X-CUBE-AI/App/network.c ****   AI_TENSOR_LIST_OBJ_EMPTY
 488:X-CUBE-AI/App/network.c **** )
 489:X-CUBE-AI/App/network.c **** 
 490:X-CUBE-AI/App/network.c **** AI_LAYER_OBJ_DECLARE(
 491:X-CUBE-AI/App/network.c ****   gemm_2_layer, 2,
 492:X-CUBE-AI/App/network.c ****   DENSE_TYPE, 0x0, NULL,
 493:X-CUBE-AI/App/network.c ****   dense, forward_dense,
 494:X-CUBE-AI/App/network.c ****   &gemm_2_chain,
 495:X-CUBE-AI/App/network.c ****   NULL, &nl_2_nl_layer, AI_STATIC, 
 496:X-CUBE-AI/App/network.c **** )
 497:X-CUBE-AI/App/network.c **** 
 498:X-CUBE-AI/App/network.c **** AI_TENSOR_CHAIN_OBJ_DECLARE(
 499:X-CUBE-AI/App/network.c ****   nl_1_nl_chain, AI_STATIC_CONST, 4,
 500:X-CUBE-AI/App/network.c ****   AI_TENSOR_LIST_OBJ_INIT(AI_FLAG_NONE, 1, &gemm_1_output),
 501:X-CUBE-AI/App/network.c ****   AI_TENSOR_LIST_OBJ_INIT(AI_FLAG_NONE, 1, &nl_1_nl_output),
 502:X-CUBE-AI/App/network.c ****   AI_TENSOR_LIST_OBJ_EMPTY,
 503:X-CUBE-AI/App/network.c ****   AI_TENSOR_LIST_OBJ_EMPTY
 504:X-CUBE-AI/App/network.c **** )
 505:X-CUBE-AI/App/network.c **** 
 506:X-CUBE-AI/App/network.c **** AI_LAYER_OBJ_DECLARE(
 507:X-CUBE-AI/App/network.c ****   nl_1_nl_layer, 1,
 508:X-CUBE-AI/App/network.c ****   NL_TYPE, 0x0, NULL,
 509:X-CUBE-AI/App/network.c ****   nl, forward_relu,
 510:X-CUBE-AI/App/network.c ****   &nl_1_nl_chain,
 511:X-CUBE-AI/App/network.c ****   NULL, &gemm_2_layer, AI_STATIC, 
 512:X-CUBE-AI/App/network.c ****   .nl_params = NULL, 
 513:X-CUBE-AI/App/network.c **** )
 514:X-CUBE-AI/App/network.c **** 
 515:X-CUBE-AI/App/network.c **** AI_TENSOR_CHAIN_OBJ_DECLARE(
 516:X-CUBE-AI/App/network.c ****   gemm_1_chain, AI_STATIC_CONST, 4,
 517:X-CUBE-AI/App/network.c ****   AI_TENSOR_LIST_OBJ_INIT(AI_FLAG_NONE, 1, &nl_0_nl_output),
 518:X-CUBE-AI/App/network.c ****   AI_TENSOR_LIST_OBJ_INIT(AI_FLAG_NONE, 1, &gemm_1_output),
 519:X-CUBE-AI/App/network.c ****   AI_TENSOR_LIST_OBJ_INIT(AI_FLAG_NONE, 2, &gemm_1_weights, &gemm_1_bias),
 520:X-CUBE-AI/App/network.c ****   AI_TENSOR_LIST_OBJ_EMPTY
 521:X-CUBE-AI/App/network.c **** )
 522:X-CUBE-AI/App/network.c **** 
 523:X-CUBE-AI/App/network.c **** AI_LAYER_OBJ_DECLARE(
 524:X-CUBE-AI/App/network.c ****   gemm_1_layer, 1,
 525:X-CUBE-AI/App/network.c ****   DENSE_TYPE, 0x0, NULL,
 526:X-CUBE-AI/App/network.c ****   dense, forward_dense,
 527:X-CUBE-AI/App/network.c ****   &gemm_1_chain,
 528:X-CUBE-AI/App/network.c ****   NULL, &nl_1_nl_layer, AI_STATIC, 
 529:X-CUBE-AI/App/network.c **** )
 530:X-CUBE-AI/App/network.c **** 
 531:X-CUBE-AI/App/network.c **** AI_TENSOR_CHAIN_OBJ_DECLARE(
 532:X-CUBE-AI/App/network.c ****   nl_0_nl_chain, AI_STATIC_CONST, 4,
 533:X-CUBE-AI/App/network.c ****   AI_TENSOR_LIST_OBJ_INIT(AI_FLAG_NONE, 1, &gemm_0_output),
 534:X-CUBE-AI/App/network.c ****   AI_TENSOR_LIST_OBJ_INIT(AI_FLAG_NONE, 1, &nl_0_nl_output),
 535:X-CUBE-AI/App/network.c ****   AI_TENSOR_LIST_OBJ_EMPTY,
 536:X-CUBE-AI/App/network.c ****   AI_TENSOR_LIST_OBJ_EMPTY
 537:X-CUBE-AI/App/network.c **** )
 538:X-CUBE-AI/App/network.c **** 
 539:X-CUBE-AI/App/network.c **** AI_LAYER_OBJ_DECLARE(
 540:X-CUBE-AI/App/network.c ****   nl_0_nl_layer, 0,
 541:X-CUBE-AI/App/network.c ****   NL_TYPE, 0x0, NULL,
 542:X-CUBE-AI/App/network.c ****   nl, forward_relu,
ARM GAS  /tmp/ccAaiSfb.s 			page 11


 543:X-CUBE-AI/App/network.c ****   &nl_0_nl_chain,
 544:X-CUBE-AI/App/network.c ****   NULL, &gemm_1_layer, AI_STATIC, 
 545:X-CUBE-AI/App/network.c ****   .nl_params = NULL, 
 546:X-CUBE-AI/App/network.c **** )
 547:X-CUBE-AI/App/network.c **** 
 548:X-CUBE-AI/App/network.c **** AI_TENSOR_CHAIN_OBJ_DECLARE(
 549:X-CUBE-AI/App/network.c ****   gemm_0_chain, AI_STATIC_CONST, 4,
 550:X-CUBE-AI/App/network.c ****   AI_TENSOR_LIST_OBJ_INIT(AI_FLAG_NONE, 1, &serving_default_keras_tensor_1030_output),
 551:X-CUBE-AI/App/network.c ****   AI_TENSOR_LIST_OBJ_INIT(AI_FLAG_NONE, 1, &gemm_0_output),
 552:X-CUBE-AI/App/network.c ****   AI_TENSOR_LIST_OBJ_INIT(AI_FLAG_NONE, 2, &gemm_0_weights, &gemm_0_bias),
 553:X-CUBE-AI/App/network.c ****   AI_TENSOR_LIST_OBJ_EMPTY
 554:X-CUBE-AI/App/network.c **** )
 555:X-CUBE-AI/App/network.c **** 
 556:X-CUBE-AI/App/network.c **** AI_LAYER_OBJ_DECLARE(
 557:X-CUBE-AI/App/network.c ****   gemm_0_layer, 0,
 558:X-CUBE-AI/App/network.c ****   DENSE_TYPE, 0x0, NULL,
 559:X-CUBE-AI/App/network.c ****   dense, forward_dense,
 560:X-CUBE-AI/App/network.c ****   &gemm_0_chain,
 561:X-CUBE-AI/App/network.c ****   NULL, &nl_0_nl_layer, AI_STATIC, 
 562:X-CUBE-AI/App/network.c **** )
 563:X-CUBE-AI/App/network.c **** 
 564:X-CUBE-AI/App/network.c **** 
 565:X-CUBE-AI/App/network.c **** #if (AI_TOOLS_API_VERSION < AI_TOOLS_API_VERSION_1_5)
 566:X-CUBE-AI/App/network.c **** 
 567:X-CUBE-AI/App/network.c **** AI_NETWORK_OBJ_DECLARE(
 568:X-CUBE-AI/App/network.c ****   AI_NET_OBJ_INSTANCE, AI_STATIC,
 569:X-CUBE-AI/App/network.c ****   AI_BUFFER_INIT(AI_FLAG_NONE,  AI_BUFFER_FORMAT_U8,
 570:X-CUBE-AI/App/network.c ****     AI_BUFFER_SHAPE_INIT(AI_SHAPE_BCWH, 4, 1, 385204, 1, 1),
 571:X-CUBE-AI/App/network.c ****     385204, NULL, NULL),
 572:X-CUBE-AI/App/network.c ****   AI_BUFFER_INIT(AI_FLAG_NONE,  AI_BUFFER_FORMAT_U8,
 573:X-CUBE-AI/App/network.c ****     AI_BUFFER_SHAPE_INIT(AI_SHAPE_BCWH, 4, 1, 1792, 1, 1),
 574:X-CUBE-AI/App/network.c ****     1792, NULL, NULL),
 575:X-CUBE-AI/App/network.c ****   AI_TENSOR_LIST_IO_OBJ_INIT(AI_FLAG_NONE, AI_NETWORK_IN_NUM, &serving_default_keras_tensor_1030_ou
 576:X-CUBE-AI/App/network.c ****   AI_TENSOR_LIST_IO_OBJ_INIT(AI_FLAG_NONE, AI_NETWORK_OUT_NUM, &nl_6_output),
 577:X-CUBE-AI/App/network.c ****   &gemm_0_layer, 0x511058ca, NULL)
 578:X-CUBE-AI/App/network.c **** 
 579:X-CUBE-AI/App/network.c **** #else
 580:X-CUBE-AI/App/network.c **** 
 581:X-CUBE-AI/App/network.c **** AI_NETWORK_OBJ_DECLARE(
 582:X-CUBE-AI/App/network.c ****   AI_NET_OBJ_INSTANCE, AI_STATIC,
 583:X-CUBE-AI/App/network.c ****   AI_BUFFER_ARRAY_OBJ_INIT_STATIC(
 584:X-CUBE-AI/App/network.c ****   	AI_FLAG_NONE, 1,
 585:X-CUBE-AI/App/network.c ****     AI_BUFFER_INIT(AI_FLAG_NONE,  AI_BUFFER_FORMAT_U8,
 586:X-CUBE-AI/App/network.c ****       AI_BUFFER_SHAPE_INIT(AI_SHAPE_BCWH, 4, 1, 385204, 1, 1),
 587:X-CUBE-AI/App/network.c ****       385204, NULL, NULL)
 588:X-CUBE-AI/App/network.c ****   ),
 589:X-CUBE-AI/App/network.c ****   AI_BUFFER_ARRAY_OBJ_INIT_STATIC(
 590:X-CUBE-AI/App/network.c ****   	AI_FLAG_NONE, 1,
 591:X-CUBE-AI/App/network.c ****     AI_BUFFER_INIT(AI_FLAG_NONE,  AI_BUFFER_FORMAT_U8,
 592:X-CUBE-AI/App/network.c ****       AI_BUFFER_SHAPE_INIT(AI_SHAPE_BCWH, 4, 1, 1792, 1, 1),
 593:X-CUBE-AI/App/network.c ****       1792, NULL, NULL)
 594:X-CUBE-AI/App/network.c ****   ),
 595:X-CUBE-AI/App/network.c ****   AI_TENSOR_LIST_IO_OBJ_INIT(AI_FLAG_NONE, AI_NETWORK_IN_NUM, &serving_default_keras_tensor_1030_ou
 596:X-CUBE-AI/App/network.c ****   AI_TENSOR_LIST_IO_OBJ_INIT(AI_FLAG_NONE, AI_NETWORK_OUT_NUM, &nl_6_output),
 597:X-CUBE-AI/App/network.c ****   &gemm_0_layer, 0x511058ca, NULL)
 598:X-CUBE-AI/App/network.c **** 
 599:X-CUBE-AI/App/network.c **** #endif	/*(AI_TOOLS_API_VERSION < AI_TOOLS_API_VERSION_1_5)*/
ARM GAS  /tmp/ccAaiSfb.s 			page 12


 600:X-CUBE-AI/App/network.c **** 
 601:X-CUBE-AI/App/network.c **** 
 602:X-CUBE-AI/App/network.c **** 
 603:X-CUBE-AI/App/network.c **** /******************************************************************************/
 604:X-CUBE-AI/App/network.c **** AI_DECLARE_STATIC
 605:X-CUBE-AI/App/network.c **** ai_bool network_configure_activations(
 606:X-CUBE-AI/App/network.c ****   ai_network* net_ctx, const ai_network_params* params)
 607:X-CUBE-AI/App/network.c **** {
 608:X-CUBE-AI/App/network.c ****   AI_ASSERT(net_ctx)
 609:X-CUBE-AI/App/network.c **** 
 610:X-CUBE-AI/App/network.c ****   if (ai_platform_get_activations_map(g_network_activations_map, 1, params)) {
 611:X-CUBE-AI/App/network.c ****     /* Updating activations (byte) offsets */
 612:X-CUBE-AI/App/network.c ****     
 613:X-CUBE-AI/App/network.c ****     serving_default_keras_tensor_1030_output_array.data = AI_PTR(g_network_activations_map[0] + 728
 614:X-CUBE-AI/App/network.c ****     serving_default_keras_tensor_1030_output_array.data_start = AI_PTR(g_network_activations_map[0]
 615:X-CUBE-AI/App/network.c ****     gemm_0_output_array.data = AI_PTR(g_network_activations_map[0] + 768);
 616:X-CUBE-AI/App/network.c ****     gemm_0_output_array.data_start = AI_PTR(g_network_activations_map[0] + 768);
 617:X-CUBE-AI/App/network.c ****     nl_0_nl_output_array.data = AI_PTR(g_network_activations_map[0] + 768);
 618:X-CUBE-AI/App/network.c ****     nl_0_nl_output_array.data_start = AI_PTR(g_network_activations_map[0] + 768);
 619:X-CUBE-AI/App/network.c ****     gemm_1_output_array.data = AI_PTR(g_network_activations_map[0] + 0);
 620:X-CUBE-AI/App/network.c ****     gemm_1_output_array.data_start = AI_PTR(g_network_activations_map[0] + 0);
 621:X-CUBE-AI/App/network.c ****     nl_1_nl_output_array.data = AI_PTR(g_network_activations_map[0] + 768);
 622:X-CUBE-AI/App/network.c ****     nl_1_nl_output_array.data_start = AI_PTR(g_network_activations_map[0] + 768);
 623:X-CUBE-AI/App/network.c ****     gemm_2_output_array.data = AI_PTR(g_network_activations_map[0] + 0);
 624:X-CUBE-AI/App/network.c ****     gemm_2_output_array.data_start = AI_PTR(g_network_activations_map[0] + 0);
 625:X-CUBE-AI/App/network.c ****     nl_2_nl_output_array.data = AI_PTR(g_network_activations_map[0] + 512);
 626:X-CUBE-AI/App/network.c ****     nl_2_nl_output_array.data_start = AI_PTR(g_network_activations_map[0] + 512);
 627:X-CUBE-AI/App/network.c ****     gemm_3_output_array.data = AI_PTR(g_network_activations_map[0] + 0);
 628:X-CUBE-AI/App/network.c ****     gemm_3_output_array.data_start = AI_PTR(g_network_activations_map[0] + 0);
 629:X-CUBE-AI/App/network.c ****     nl_3_nl_output_array.data = AI_PTR(g_network_activations_map[0] + 384);
 630:X-CUBE-AI/App/network.c ****     nl_3_nl_output_array.data_start = AI_PTR(g_network_activations_map[0] + 384);
 631:X-CUBE-AI/App/network.c ****     gemm_4_output_array.data = AI_PTR(g_network_activations_map[0] + 0);
 632:X-CUBE-AI/App/network.c ****     gemm_4_output_array.data_start = AI_PTR(g_network_activations_map[0] + 0);
 633:X-CUBE-AI/App/network.c ****     nl_4_nl_output_array.data = AI_PTR(g_network_activations_map[0] + 256);
 634:X-CUBE-AI/App/network.c ****     nl_4_nl_output_array.data_start = AI_PTR(g_network_activations_map[0] + 256);
 635:X-CUBE-AI/App/network.c ****     gemm_5_output_array.data = AI_PTR(g_network_activations_map[0] + 0);
 636:X-CUBE-AI/App/network.c ****     gemm_5_output_array.data_start = AI_PTR(g_network_activations_map[0] + 0);
 637:X-CUBE-AI/App/network.c ****     nl_6_output_array.data = AI_PTR(g_network_activations_map[0] + 52);
 638:X-CUBE-AI/App/network.c ****     nl_6_output_array.data_start = AI_PTR(g_network_activations_map[0] + 52);
 639:X-CUBE-AI/App/network.c ****     return true;
 640:X-CUBE-AI/App/network.c ****   }
 641:X-CUBE-AI/App/network.c ****   AI_ERROR_TRAP(net_ctx, INIT_FAILED, NETWORK_ACTIVATIONS);
 642:X-CUBE-AI/App/network.c ****   return false;
 643:X-CUBE-AI/App/network.c **** }
 644:X-CUBE-AI/App/network.c **** 
 645:X-CUBE-AI/App/network.c **** 
 646:X-CUBE-AI/App/network.c **** 
 647:X-CUBE-AI/App/network.c **** 
 648:X-CUBE-AI/App/network.c **** /******************************************************************************/
 649:X-CUBE-AI/App/network.c **** AI_DECLARE_STATIC
 650:X-CUBE-AI/App/network.c **** ai_bool network_configure_weights(
 651:X-CUBE-AI/App/network.c ****   ai_network* net_ctx, const ai_network_params* params)
 652:X-CUBE-AI/App/network.c **** {
  30              		.loc 1 652 1 view -0
  31              		.cfi_startproc
  32              		@ args = 0, pretend = 0, frame = 0
  33              		@ frame_needed = 0, uses_anonymous_args = 0
ARM GAS  /tmp/ccAaiSfb.s 			page 13


  34              		.loc 1 652 1 is_stmt 0 view .LVU1
  35 0000 38B5     		push	{r3, r4, r5, lr}
  36              	.LCFI0:
  37              		.cfi_def_cfa_offset 16
  38              		.cfi_offset 3, -16
  39              		.cfi_offset 4, -12
  40              		.cfi_offset 5, -8
  41              		.cfi_offset 14, -4
  42 0002 0446     		mov	r4, r0
  43 0004 0A46     		mov	r2, r1
 653:X-CUBE-AI/App/network.c ****   AI_ASSERT(net_ctx)
  44              		.loc 1 653 3 is_stmt 1 view .LVU2
 654:X-CUBE-AI/App/network.c **** 
 655:X-CUBE-AI/App/network.c ****   if (ai_platform_get_weights_map(g_network_weights_map, 1, params)) {
  45              		.loc 1 655 3 view .LVU3
  46              		.loc 1 655 7 is_stmt 0 view .LVU4
  47 0006 0121     		movs	r1, #1
  48              	.LVL1:
  49              		.loc 1 655 7 view .LVU5
  50 0008 4148     		ldr	r0, .L5
  51              	.LVL2:
  52              		.loc 1 655 7 view .LVU6
  53 000a FFF7FEFF 		bl	ai_platform_get_weights_map
  54              	.LVL3:
  55              		.loc 1 655 6 discriminator 1 view .LVU7
  56 000e 0546     		mov	r5, r0
  57 0010 0028     		cmp	r0, #0
  58 0012 76D0     		beq	.L2
 656:X-CUBE-AI/App/network.c ****     /* Updating weights (byte) offsets */
 657:X-CUBE-AI/App/network.c ****     
 658:X-CUBE-AI/App/network.c ****     gemm_0_weights_array.format |= AI_FMT_FLAG_CONST;
  59              		.loc 1 658 5 is_stmt 1 view .LVU8
  60              		.loc 1 658 25 is_stmt 0 view .LVU9
  61 0014 3F4A     		ldr	r2, .L5+4
  62 0016 1368     		ldr	r3, [r2]
  63              		.loc 1 658 33 view .LVU10
  64 0018 43F08043 		orr	r3, r3, #1073741824
  65 001c 1360     		str	r3, [r2]
 659:X-CUBE-AI/App/network.c ****     gemm_0_weights_array.data = AI_PTR(g_network_weights_map[0] + 0);
  66              		.loc 1 659 5 is_stmt 1 view .LVU11
  67              		.loc 1 659 33 is_stmt 0 view .LVU12
  68 001e 3C4B     		ldr	r3, .L5
  69 0020 1B68     		ldr	r3, [r3]
  70              		.loc 1 659 31 view .LVU13
  71 0022 9360     		str	r3, [r2, #8]
 660:X-CUBE-AI/App/network.c ****     gemm_0_weights_array.data_start = AI_PTR(g_network_weights_map[0] + 0);
  72              		.loc 1 660 5 is_stmt 1 view .LVU14
  73              		.loc 1 660 37 is_stmt 0 view .LVU15
  74 0024 D360     		str	r3, [r2, #12]
 661:X-CUBE-AI/App/network.c ****     gemm_0_bias_array.format |= AI_FMT_FLAG_CONST;
  75              		.loc 1 661 5 is_stmt 1 view .LVU16
  76              		.loc 1 661 22 is_stmt 0 view .LVU17
  77 0026 3C4A     		ldr	r2, .L5+8
  78 0028 1168     		ldr	r1, [r2]
  79              		.loc 1 661 30 view .LVU18
  80 002a 41F08041 		orr	r1, r1, #1073741824
  81 002e 1160     		str	r1, [r2]
ARM GAS  /tmp/ccAaiSfb.s 			page 14


 662:X-CUBE-AI/App/network.c ****     gemm_0_bias_array.data = AI_PTR(g_network_weights_map[0] + 10240);
  82              		.loc 1 662 5 is_stmt 1 view .LVU19
  83              		.loc 1 662 30 is_stmt 0 view .LVU20
  84 0030 03F52051 		add	r1, r3, #10240
  85              		.loc 1 662 28 view .LVU21
  86 0034 9160     		str	r1, [r2, #8]
 663:X-CUBE-AI/App/network.c ****     gemm_0_bias_array.data_start = AI_PTR(g_network_weights_map[0] + 10240);
  87              		.loc 1 663 5 is_stmt 1 view .LVU22
  88              		.loc 1 663 34 is_stmt 0 view .LVU23
  89 0036 D160     		str	r1, [r2, #12]
 664:X-CUBE-AI/App/network.c ****     gemm_1_weights_array.format |= AI_FMT_FLAG_CONST;
  90              		.loc 1 664 5 is_stmt 1 view .LVU24
  91              		.loc 1 664 25 is_stmt 0 view .LVU25
  92 0038 384A     		ldr	r2, .L5+12
  93 003a 1168     		ldr	r1, [r2]
  94              		.loc 1 664 33 view .LVU26
  95 003c 41F08041 		orr	r1, r1, #1073741824
  96 0040 1160     		str	r1, [r2]
 665:X-CUBE-AI/App/network.c ****     gemm_1_weights_array.data = AI_PTR(g_network_weights_map[0] + 11264);
  97              		.loc 1 665 5 is_stmt 1 view .LVU27
  98              		.loc 1 665 33 is_stmt 0 view .LVU28
  99 0042 03F53051 		add	r1, r3, #11264
 100              		.loc 1 665 31 view .LVU29
 101 0046 9160     		str	r1, [r2, #8]
 666:X-CUBE-AI/App/network.c ****     gemm_1_weights_array.data_start = AI_PTR(g_network_weights_map[0] + 11264);
 102              		.loc 1 666 5 is_stmt 1 view .LVU30
 103              		.loc 1 666 37 is_stmt 0 view .LVU31
 104 0048 D160     		str	r1, [r2, #12]
 667:X-CUBE-AI/App/network.c ****     gemm_1_bias_array.format |= AI_FMT_FLAG_CONST;
 105              		.loc 1 667 5 is_stmt 1 view .LVU32
 106              		.loc 1 667 22 is_stmt 0 view .LVU33
 107 004a 3549     		ldr	r1, .L5+16
 108 004c 0A68     		ldr	r2, [r1]
 109              		.loc 1 667 30 view .LVU34
 110 004e 42F08042 		orr	r2, r2, #1073741824
 111 0052 0A60     		str	r2, [r1]
 668:X-CUBE-AI/App/network.c ****     gemm_1_bias_array.data = AI_PTR(g_network_weights_map[0] + 207872);
 112              		.loc 1 668 5 is_stmt 1 view .LVU35
 113              		.loc 1 668 30 is_stmt 0 view .LVU36
 114 0054 03F54B32 		add	r2, r3, #207872
 115              		.loc 1 668 28 view .LVU37
 116 0058 8A60     		str	r2, [r1, #8]
 669:X-CUBE-AI/App/network.c ****     gemm_1_bias_array.data_start = AI_PTR(g_network_weights_map[0] + 207872);
 117              		.loc 1 669 5 is_stmt 1 view .LVU38
 118              		.loc 1 669 34 is_stmt 0 view .LVU39
 119 005a CA60     		str	r2, [r1, #12]
 670:X-CUBE-AI/App/network.c ****     gemm_2_weights_array.format |= AI_FMT_FLAG_CONST;
 120              		.loc 1 670 5 is_stmt 1 view .LVU40
 121              		.loc 1 670 25 is_stmt 0 view .LVU41
 122 005c 3149     		ldr	r1, .L5+20
 123 005e 0868     		ldr	r0, [r1]
 124              		.loc 1 670 33 view .LVU42
 125 0060 40F08040 		orr	r0, r0, #1073741824
 126 0064 0860     		str	r0, [r1]
 671:X-CUBE-AI/App/network.c ****     gemm_2_weights_array.data = AI_PTR(g_network_weights_map[0] + 208640);
 127              		.loc 1 671 5 is_stmt 1 view .LVU43
 128              		.loc 1 671 33 is_stmt 0 view .LVU44
ARM GAS  /tmp/ccAaiSfb.s 			page 15


 129 0066 02F54072 		add	r2, r2, #768
 130              		.loc 1 671 31 view .LVU45
 131 006a 8A60     		str	r2, [r1, #8]
 672:X-CUBE-AI/App/network.c ****     gemm_2_weights_array.data_start = AI_PTR(g_network_weights_map[0] + 208640);
 132              		.loc 1 672 5 is_stmt 1 view .LVU46
 133              		.loc 1 672 37 is_stmt 0 view .LVU47
 134 006c CA60     		str	r2, [r1, #12]
 673:X-CUBE-AI/App/network.c ****     gemm_2_bias_array.format |= AI_FMT_FLAG_CONST;
 135              		.loc 1 673 5 is_stmt 1 view .LVU48
 136              		.loc 1 673 22 is_stmt 0 view .LVU49
 137 006e 2E4A     		ldr	r2, .L5+24
 138 0070 1168     		ldr	r1, [r2]
 139              		.loc 1 673 30 view .LVU50
 140 0072 41F08041 		orr	r1, r1, #1073741824
 141 0076 1160     		str	r1, [r2]
 674:X-CUBE-AI/App/network.c ****     gemm_2_bias_array.data = AI_PTR(g_network_weights_map[0] + 306944);
 142              		.loc 1 674 5 is_stmt 1 view .LVU51
 143              		.loc 1 674 30 is_stmt 0 view .LVU52
 144 0078 03F59521 		add	r1, r3, #305152
 145 007c 01F5E061 		add	r1, r1, #1792
 146              		.loc 1 674 28 view .LVU53
 147 0080 9160     		str	r1, [r2, #8]
 675:X-CUBE-AI/App/network.c ****     gemm_2_bias_array.data_start = AI_PTR(g_network_weights_map[0] + 306944);
 148              		.loc 1 675 5 is_stmt 1 view .LVU54
 149              		.loc 1 675 34 is_stmt 0 view .LVU55
 150 0082 D160     		str	r1, [r2, #12]
 676:X-CUBE-AI/App/network.c ****     gemm_3_weights_array.format |= AI_FMT_FLAG_CONST;
 151              		.loc 1 676 5 is_stmt 1 view .LVU56
 152              		.loc 1 676 25 is_stmt 0 view .LVU57
 153 0084 294A     		ldr	r2, .L5+28
 154 0086 1168     		ldr	r1, [r2]
 155              		.loc 1 676 33 view .LVU58
 156 0088 41F08041 		orr	r1, r1, #1073741824
 157 008c 1160     		str	r1, [r2]
 677:X-CUBE-AI/App/network.c ****     gemm_3_weights_array.data = AI_PTR(g_network_weights_map[0] + 307456);
 158              		.loc 1 677 5 is_stmt 1 view .LVU59
 159              		.loc 1 677 33 is_stmt 0 view .LVU60
 160 008e 03F59621 		add	r1, r3, #307200
 161 0092 01F58071 		add	r1, r1, #256
 162              		.loc 1 677 31 view .LVU61
 163 0096 9160     		str	r1, [r2, #8]
 678:X-CUBE-AI/App/network.c ****     gemm_3_weights_array.data_start = AI_PTR(g_network_weights_map[0] + 307456);
 164              		.loc 1 678 5 is_stmt 1 view .LVU62
 165              		.loc 1 678 37 is_stmt 0 view .LVU63
 166 0098 D160     		str	r1, [r2, #12]
 679:X-CUBE-AI/App/network.c ****     gemm_3_bias_array.format |= AI_FMT_FLAG_CONST;
 167              		.loc 1 679 5 is_stmt 1 view .LVU64
 168              		.loc 1 679 22 is_stmt 0 view .LVU65
 169 009a 2549     		ldr	r1, .L5+32
 170 009c 0A68     		ldr	r2, [r1]
 171              		.loc 1 679 30 view .LVU66
 172 009e 42F08042 		orr	r2, r2, #1073741824
 173 00a2 0A60     		str	r2, [r1]
 680:X-CUBE-AI/App/network.c ****     gemm_3_bias_array.data = AI_PTR(g_network_weights_map[0] + 356608);
 174              		.loc 1 680 5 is_stmt 1 view .LVU67
 175              		.loc 1 680 30 is_stmt 0 view .LVU68
 176 00a4 03F5AE22 		add	r2, r3, #356352
ARM GAS  /tmp/ccAaiSfb.s 			page 16


 177 00a8 02F58070 		add	r0, r2, #256
 178              		.loc 1 680 28 view .LVU69
 179 00ac 8860     		str	r0, [r1, #8]
 681:X-CUBE-AI/App/network.c ****     gemm_3_bias_array.data_start = AI_PTR(g_network_weights_map[0] + 356608);
 180              		.loc 1 681 5 is_stmt 1 view .LVU70
 181              		.loc 1 681 34 is_stmt 0 view .LVU71
 182 00ae C860     		str	r0, [r1, #12]
 682:X-CUBE-AI/App/network.c ****     gemm_4_weights_array.format |= AI_FMT_FLAG_CONST;
 183              		.loc 1 682 5 is_stmt 1 view .LVU72
 184              		.loc 1 682 25 is_stmt 0 view .LVU73
 185 00b0 2049     		ldr	r1, .L5+36
 186 00b2 0868     		ldr	r0, [r1]
 187              		.loc 1 682 33 view .LVU74
 188 00b4 40F08040 		orr	r0, r0, #1073741824
 189 00b8 0860     		str	r0, [r1]
 683:X-CUBE-AI/App/network.c ****     gemm_4_weights_array.data = AI_PTR(g_network_weights_map[0] + 356992);
 190              		.loc 1 683 5 is_stmt 1 view .LVU75
 191              		.loc 1 683 33 is_stmt 0 view .LVU76
 192 00ba 02F52072 		add	r2, r2, #640
 193              		.loc 1 683 31 view .LVU77
 194 00be 8A60     		str	r2, [r1, #8]
 684:X-CUBE-AI/App/network.c ****     gemm_4_weights_array.data_start = AI_PTR(g_network_weights_map[0] + 356992);
 195              		.loc 1 684 5 is_stmt 1 view .LVU78
 196              		.loc 1 684 37 is_stmt 0 view .LVU79
 197 00c0 CA60     		str	r2, [r1, #12]
 685:X-CUBE-AI/App/network.c ****     gemm_4_bias_array.format |= AI_FMT_FLAG_CONST;
 198              		.loc 1 685 5 is_stmt 1 view .LVU80
 199              		.loc 1 685 22 is_stmt 0 view .LVU81
 200 00c2 1D49     		ldr	r1, .L5+40
 201 00c4 0A68     		ldr	r2, [r1]
 202              		.loc 1 685 30 view .LVU82
 203 00c6 42F08042 		orr	r2, r2, #1073741824
 204 00ca 0A60     		str	r2, [r1]
 686:X-CUBE-AI/App/network.c ****     gemm_4_bias_array.data = AI_PTR(g_network_weights_map[0] + 381568);
 205              		.loc 1 686 5 is_stmt 1 view .LVU83
 206              		.loc 1 686 30 is_stmt 0 view .LVU84
 207 00cc 03F5BA22 		add	r2, r3, #380928
 208 00d0 02F52070 		add	r0, r2, #640
 209              		.loc 1 686 28 view .LVU85
 210 00d4 8860     		str	r0, [r1, #8]
 687:X-CUBE-AI/App/network.c ****     gemm_4_bias_array.data_start = AI_PTR(g_network_weights_map[0] + 381568);
 211              		.loc 1 687 5 is_stmt 1 view .LVU86
 212              		.loc 1 687 34 is_stmt 0 view .LVU87
 213 00d6 C860     		str	r0, [r1, #12]
 688:X-CUBE-AI/App/network.c ****     gemm_5_weights_array.format |= AI_FMT_FLAG_CONST;
 214              		.loc 1 688 5 is_stmt 1 view .LVU88
 215              		.loc 1 688 25 is_stmt 0 view .LVU89
 216 00d8 1849     		ldr	r1, .L5+44
 217 00da 0868     		ldr	r0, [r1]
 218              		.loc 1 688 33 view .LVU90
 219 00dc 40F08040 		orr	r0, r0, #1073741824
 220 00e0 0860     		str	r0, [r1]
 689:X-CUBE-AI/App/network.c ****     gemm_5_weights_array.data = AI_PTR(g_network_weights_map[0] + 381824);
 221              		.loc 1 689 5 is_stmt 1 view .LVU91
 222              		.loc 1 689 33 is_stmt 0 view .LVU92
 223 00e2 02F56072 		add	r2, r2, #896
 224              		.loc 1 689 31 view .LVU93
ARM GAS  /tmp/ccAaiSfb.s 			page 17


 225 00e6 8A60     		str	r2, [r1, #8]
 690:X-CUBE-AI/App/network.c ****     gemm_5_weights_array.data_start = AI_PTR(g_network_weights_map[0] + 381824);
 226              		.loc 1 690 5 is_stmt 1 view .LVU94
 227              		.loc 1 690 37 is_stmt 0 view .LVU95
 228 00e8 CA60     		str	r2, [r1, #12]
 691:X-CUBE-AI/App/network.c ****     gemm_5_bias_array.format |= AI_FMT_FLAG_CONST;
 229              		.loc 1 691 5 is_stmt 1 view .LVU96
 230              		.loc 1 691 22 is_stmt 0 view .LVU97
 231 00ea 154A     		ldr	r2, .L5+48
 232 00ec 1168     		ldr	r1, [r2]
 233              		.loc 1 691 30 view .LVU98
 234 00ee 41F08041 		orr	r1, r1, #1073741824
 235 00f2 1160     		str	r1, [r2]
 692:X-CUBE-AI/App/network.c ****     gemm_5_bias_array.data = AI_PTR(g_network_weights_map[0] + 385152);
 236              		.loc 1 692 5 is_stmt 1 view .LVU99
 237              		.loc 1 692 30 is_stmt 0 view .LVU100
 238 00f4 03F5BC23 		add	r3, r3, #385024
 239 00f8 8033     		adds	r3, r3, #128
 240              		.loc 1 692 28 view .LVU101
 241 00fa 9360     		str	r3, [r2, #8]
 693:X-CUBE-AI/App/network.c ****     gemm_5_bias_array.data_start = AI_PTR(g_network_weights_map[0] + 385152);
 242              		.loc 1 693 5 is_stmt 1 view .LVU102
 243              		.loc 1 693 34 is_stmt 0 view .LVU103
 244 00fc D360     		str	r3, [r2, #12]
 694:X-CUBE-AI/App/network.c ****     return true;
 245              		.loc 1 694 5 is_stmt 1 view .LVU104
 246              	.L3:
 695:X-CUBE-AI/App/network.c ****   }
 696:X-CUBE-AI/App/network.c ****   AI_ERROR_TRAP(net_ctx, INIT_FAILED, NETWORK_WEIGHTS);
 697:X-CUBE-AI/App/network.c ****   return false;
 698:X-CUBE-AI/App/network.c **** }
 247              		.loc 1 698 1 is_stmt 0 view .LVU105
 248 00fe 2846     		mov	r0, r5
 249 0100 38BD     		pop	{r3, r4, r5, pc}
 250              	.LVL4:
 251              	.L2:
 696:X-CUBE-AI/App/network.c ****   return false;
 252              		.loc 1 696 3 is_stmt 1 view .LVU106
 253 0102 1222     		movs	r2, #18
 254 0104 3021     		movs	r1, #48
 255 0106 2046     		mov	r0, r4
 256 0108 FFF7FEFF 		bl	ai_platform_network_set_error
 257              	.LVL5:
 697:X-CUBE-AI/App/network.c **** }
 258              		.loc 1 697 3 view .LVU107
 697:X-CUBE-AI/App/network.c **** }
 259              		.loc 1 697 10 is_stmt 0 view .LVU108
 260 010c F7E7     		b	.L3
 261              	.L6:
 262 010e 00BF     		.align	2
 263              	.L5:
 264 0110 00000000 		.word	g_network_weights_map
 265 0114 00000000 		.word	gemm_0_weights_array
 266 0118 00000000 		.word	gemm_0_bias_array
 267 011c 00000000 		.word	gemm_1_weights_array
 268 0120 00000000 		.word	gemm_1_bias_array
 269 0124 00000000 		.word	gemm_2_weights_array
ARM GAS  /tmp/ccAaiSfb.s 			page 18


 270 0128 00000000 		.word	gemm_2_bias_array
 271 012c 00000000 		.word	gemm_3_weights_array
 272 0130 00000000 		.word	gemm_3_bias_array
 273 0134 00000000 		.word	gemm_4_weights_array
 274 0138 00000000 		.word	gemm_4_bias_array
 275 013c 00000000 		.word	gemm_5_weights_array
 276 0140 00000000 		.word	gemm_5_bias_array
 277              		.cfi_endproc
 278              	.LFE5:
 280              		.section	.text.network_configure_activations,"ax",%progbits
 281              		.align	1
 282              		.syntax unified
 283              		.thumb
 284              		.thumb_func
 286              	network_configure_activations:
 287              	.LVL6:
 288              	.LFB4:
 607:X-CUBE-AI/App/network.c ****   AI_ASSERT(net_ctx)
 289              		.loc 1 607 1 is_stmt 1 view -0
 290              		.cfi_startproc
 291              		@ args = 0, pretend = 0, frame = 0
 292              		@ frame_needed = 0, uses_anonymous_args = 0
 607:X-CUBE-AI/App/network.c ****   AI_ASSERT(net_ctx)
 293              		.loc 1 607 1 is_stmt 0 view .LVU110
 294 0000 38B5     		push	{r3, r4, r5, lr}
 295              	.LCFI1:
 296              		.cfi_def_cfa_offset 16
 297              		.cfi_offset 3, -16
 298              		.cfi_offset 4, -12
 299              		.cfi_offset 5, -8
 300              		.cfi_offset 14, -4
 301 0002 0446     		mov	r4, r0
 302 0004 0A46     		mov	r2, r1
 608:X-CUBE-AI/App/network.c **** 
 303              		.loc 1 608 3 is_stmt 1 view .LVU111
 610:X-CUBE-AI/App/network.c ****     /* Updating activations (byte) offsets */
 304              		.loc 1 610 3 view .LVU112
 610:X-CUBE-AI/App/network.c ****     /* Updating activations (byte) offsets */
 305              		.loc 1 610 7 is_stmt 0 view .LVU113
 306 0006 0121     		movs	r1, #1
 307              	.LVL7:
 610:X-CUBE-AI/App/network.c ****     /* Updating activations (byte) offsets */
 308              		.loc 1 610 7 view .LVU114
 309 0008 2048     		ldr	r0, .L11
 310              	.LVL8:
 610:X-CUBE-AI/App/network.c ****     /* Updating activations (byte) offsets */
 311              		.loc 1 610 7 view .LVU115
 312 000a FFF7FEFF 		bl	ai_platform_get_activations_map
 313              	.LVL9:
 610:X-CUBE-AI/App/network.c ****     /* Updating activations (byte) offsets */
 314              		.loc 1 610 6 discriminator 1 view .LVU116
 315 000e 0546     		mov	r5, r0
 316 0010 0028     		cmp	r0, #0
 317 0012 35D0     		beq	.L8
 613:X-CUBE-AI/App/network.c ****     serving_default_keras_tensor_1030_output_array.data_start = AI_PTR(g_network_activations_map[0]
 318              		.loc 1 613 5 is_stmt 1 view .LVU117
 613:X-CUBE-AI/App/network.c ****     serving_default_keras_tensor_1030_output_array.data_start = AI_PTR(g_network_activations_map[0]
ARM GAS  /tmp/ccAaiSfb.s 			page 19


 319              		.loc 1 613 59 is_stmt 0 view .LVU118
 320 0014 1D4B     		ldr	r3, .L11
 321 0016 1B68     		ldr	r3, [r3]
 322 0018 03F53671 		add	r1, r3, #728
 613:X-CUBE-AI/App/network.c ****     serving_default_keras_tensor_1030_output_array.data_start = AI_PTR(g_network_activations_map[0]
 323              		.loc 1 613 57 view .LVU119
 324 001c 1C4A     		ldr	r2, .L11+4
 325 001e 9160     		str	r1, [r2, #8]
 614:X-CUBE-AI/App/network.c ****     gemm_0_output_array.data = AI_PTR(g_network_activations_map[0] + 768);
 326              		.loc 1 614 5 is_stmt 1 view .LVU120
 614:X-CUBE-AI/App/network.c ****     gemm_0_output_array.data = AI_PTR(g_network_activations_map[0] + 768);
 327              		.loc 1 614 63 is_stmt 0 view .LVU121
 328 0020 D160     		str	r1, [r2, #12]
 615:X-CUBE-AI/App/network.c ****     gemm_0_output_array.data_start = AI_PTR(g_network_activations_map[0] + 768);
 329              		.loc 1 615 5 is_stmt 1 view .LVU122
 615:X-CUBE-AI/App/network.c ****     gemm_0_output_array.data_start = AI_PTR(g_network_activations_map[0] + 768);
 330              		.loc 1 615 32 is_stmt 0 view .LVU123
 331 0022 03F54072 		add	r2, r3, #768
 615:X-CUBE-AI/App/network.c ****     gemm_0_output_array.data_start = AI_PTR(g_network_activations_map[0] + 768);
 332              		.loc 1 615 30 view .LVU124
 333 0026 1B49     		ldr	r1, .L11+8
 334 0028 8A60     		str	r2, [r1, #8]
 616:X-CUBE-AI/App/network.c ****     nl_0_nl_output_array.data = AI_PTR(g_network_activations_map[0] + 768);
 335              		.loc 1 616 5 is_stmt 1 view .LVU125
 616:X-CUBE-AI/App/network.c ****     nl_0_nl_output_array.data = AI_PTR(g_network_activations_map[0] + 768);
 336              		.loc 1 616 36 is_stmt 0 view .LVU126
 337 002a CA60     		str	r2, [r1, #12]
 617:X-CUBE-AI/App/network.c ****     nl_0_nl_output_array.data_start = AI_PTR(g_network_activations_map[0] + 768);
 338              		.loc 1 617 5 is_stmt 1 view .LVU127
 617:X-CUBE-AI/App/network.c ****     nl_0_nl_output_array.data_start = AI_PTR(g_network_activations_map[0] + 768);
 339              		.loc 1 617 31 is_stmt 0 view .LVU128
 340 002c 1A49     		ldr	r1, .L11+12
 341 002e 8A60     		str	r2, [r1, #8]
 618:X-CUBE-AI/App/network.c ****     gemm_1_output_array.data = AI_PTR(g_network_activations_map[0] + 0);
 342              		.loc 1 618 5 is_stmt 1 view .LVU129
 618:X-CUBE-AI/App/network.c ****     gemm_1_output_array.data = AI_PTR(g_network_activations_map[0] + 0);
 343              		.loc 1 618 37 is_stmt 0 view .LVU130
 344 0030 CA60     		str	r2, [r1, #12]
 619:X-CUBE-AI/App/network.c ****     gemm_1_output_array.data_start = AI_PTR(g_network_activations_map[0] + 0);
 345              		.loc 1 619 5 is_stmt 1 view .LVU131
 619:X-CUBE-AI/App/network.c ****     gemm_1_output_array.data_start = AI_PTR(g_network_activations_map[0] + 0);
 346              		.loc 1 619 30 is_stmt 0 view .LVU132
 347 0032 1A49     		ldr	r1, .L11+16
 348 0034 8B60     		str	r3, [r1, #8]
 620:X-CUBE-AI/App/network.c ****     nl_1_nl_output_array.data = AI_PTR(g_network_activations_map[0] + 768);
 349              		.loc 1 620 5 is_stmt 1 view .LVU133
 620:X-CUBE-AI/App/network.c ****     nl_1_nl_output_array.data = AI_PTR(g_network_activations_map[0] + 768);
 350              		.loc 1 620 36 is_stmt 0 view .LVU134
 351 0036 CB60     		str	r3, [r1, #12]
 621:X-CUBE-AI/App/network.c ****     nl_1_nl_output_array.data_start = AI_PTR(g_network_activations_map[0] + 768);
 352              		.loc 1 621 5 is_stmt 1 view .LVU135
 621:X-CUBE-AI/App/network.c ****     nl_1_nl_output_array.data_start = AI_PTR(g_network_activations_map[0] + 768);
 353              		.loc 1 621 31 is_stmt 0 view .LVU136
 354 0038 1949     		ldr	r1, .L11+20
 355 003a 8A60     		str	r2, [r1, #8]
 622:X-CUBE-AI/App/network.c ****     gemm_2_output_array.data = AI_PTR(g_network_activations_map[0] + 0);
 356              		.loc 1 622 5 is_stmt 1 view .LVU137
ARM GAS  /tmp/ccAaiSfb.s 			page 20


 622:X-CUBE-AI/App/network.c ****     gemm_2_output_array.data = AI_PTR(g_network_activations_map[0] + 0);
 357              		.loc 1 622 37 is_stmt 0 view .LVU138
 358 003c CA60     		str	r2, [r1, #12]
 623:X-CUBE-AI/App/network.c ****     gemm_2_output_array.data_start = AI_PTR(g_network_activations_map[0] + 0);
 359              		.loc 1 623 5 is_stmt 1 view .LVU139
 623:X-CUBE-AI/App/network.c ****     gemm_2_output_array.data_start = AI_PTR(g_network_activations_map[0] + 0);
 360              		.loc 1 623 30 is_stmt 0 view .LVU140
 361 003e 194A     		ldr	r2, .L11+24
 362 0040 9360     		str	r3, [r2, #8]
 624:X-CUBE-AI/App/network.c ****     nl_2_nl_output_array.data = AI_PTR(g_network_activations_map[0] + 512);
 363              		.loc 1 624 5 is_stmt 1 view .LVU141
 624:X-CUBE-AI/App/network.c ****     nl_2_nl_output_array.data = AI_PTR(g_network_activations_map[0] + 512);
 364              		.loc 1 624 36 is_stmt 0 view .LVU142
 365 0042 D360     		str	r3, [r2, #12]
 625:X-CUBE-AI/App/network.c ****     nl_2_nl_output_array.data_start = AI_PTR(g_network_activations_map[0] + 512);
 366              		.loc 1 625 5 is_stmt 1 view .LVU143
 625:X-CUBE-AI/App/network.c ****     nl_2_nl_output_array.data_start = AI_PTR(g_network_activations_map[0] + 512);
 367              		.loc 1 625 33 is_stmt 0 view .LVU144
 368 0044 03F50071 		add	r1, r3, #512
 625:X-CUBE-AI/App/network.c ****     nl_2_nl_output_array.data_start = AI_PTR(g_network_activations_map[0] + 512);
 369              		.loc 1 625 31 view .LVU145
 370 0048 174A     		ldr	r2, .L11+28
 371 004a 9160     		str	r1, [r2, #8]
 626:X-CUBE-AI/App/network.c ****     gemm_3_output_array.data = AI_PTR(g_network_activations_map[0] + 0);
 372              		.loc 1 626 5 is_stmt 1 view .LVU146
 626:X-CUBE-AI/App/network.c ****     gemm_3_output_array.data = AI_PTR(g_network_activations_map[0] + 0);
 373              		.loc 1 626 37 is_stmt 0 view .LVU147
 374 004c D160     		str	r1, [r2, #12]
 627:X-CUBE-AI/App/network.c ****     gemm_3_output_array.data_start = AI_PTR(g_network_activations_map[0] + 0);
 375              		.loc 1 627 5 is_stmt 1 view .LVU148
 627:X-CUBE-AI/App/network.c ****     gemm_3_output_array.data_start = AI_PTR(g_network_activations_map[0] + 0);
 376              		.loc 1 627 30 is_stmt 0 view .LVU149
 377 004e 174A     		ldr	r2, .L11+32
 378 0050 9360     		str	r3, [r2, #8]
 628:X-CUBE-AI/App/network.c ****     nl_3_nl_output_array.data = AI_PTR(g_network_activations_map[0] + 384);
 379              		.loc 1 628 5 is_stmt 1 view .LVU150
 628:X-CUBE-AI/App/network.c ****     nl_3_nl_output_array.data = AI_PTR(g_network_activations_map[0] + 384);
 380              		.loc 1 628 36 is_stmt 0 view .LVU151
 381 0052 D360     		str	r3, [r2, #12]
 629:X-CUBE-AI/App/network.c ****     nl_3_nl_output_array.data_start = AI_PTR(g_network_activations_map[0] + 384);
 382              		.loc 1 629 5 is_stmt 1 view .LVU152
 629:X-CUBE-AI/App/network.c ****     nl_3_nl_output_array.data_start = AI_PTR(g_network_activations_map[0] + 384);
 383              		.loc 1 629 33 is_stmt 0 view .LVU153
 384 0054 03F5C071 		add	r1, r3, #384
 629:X-CUBE-AI/App/network.c ****     nl_3_nl_output_array.data_start = AI_PTR(g_network_activations_map[0] + 384);
 385              		.loc 1 629 31 view .LVU154
 386 0058 154A     		ldr	r2, .L11+36
 387 005a 9160     		str	r1, [r2, #8]
 630:X-CUBE-AI/App/network.c ****     gemm_4_output_array.data = AI_PTR(g_network_activations_map[0] + 0);
 388              		.loc 1 630 5 is_stmt 1 view .LVU155
 630:X-CUBE-AI/App/network.c ****     gemm_4_output_array.data = AI_PTR(g_network_activations_map[0] + 0);
 389              		.loc 1 630 37 is_stmt 0 view .LVU156
 390 005c D160     		str	r1, [r2, #12]
 631:X-CUBE-AI/App/network.c ****     gemm_4_output_array.data_start = AI_PTR(g_network_activations_map[0] + 0);
 391              		.loc 1 631 5 is_stmt 1 view .LVU157
 631:X-CUBE-AI/App/network.c ****     gemm_4_output_array.data_start = AI_PTR(g_network_activations_map[0] + 0);
 392              		.loc 1 631 30 is_stmt 0 view .LVU158
ARM GAS  /tmp/ccAaiSfb.s 			page 21


 393 005e 154A     		ldr	r2, .L11+40
 394 0060 9360     		str	r3, [r2, #8]
 632:X-CUBE-AI/App/network.c ****     nl_4_nl_output_array.data = AI_PTR(g_network_activations_map[0] + 256);
 395              		.loc 1 632 5 is_stmt 1 view .LVU159
 632:X-CUBE-AI/App/network.c ****     nl_4_nl_output_array.data = AI_PTR(g_network_activations_map[0] + 256);
 396              		.loc 1 632 36 is_stmt 0 view .LVU160
 397 0062 D360     		str	r3, [r2, #12]
 633:X-CUBE-AI/App/network.c ****     nl_4_nl_output_array.data_start = AI_PTR(g_network_activations_map[0] + 256);
 398              		.loc 1 633 5 is_stmt 1 view .LVU161
 633:X-CUBE-AI/App/network.c ****     nl_4_nl_output_array.data_start = AI_PTR(g_network_activations_map[0] + 256);
 399              		.loc 1 633 33 is_stmt 0 view .LVU162
 400 0064 03F58071 		add	r1, r3, #256
 633:X-CUBE-AI/App/network.c ****     nl_4_nl_output_array.data_start = AI_PTR(g_network_activations_map[0] + 256);
 401              		.loc 1 633 31 view .LVU163
 402 0068 134A     		ldr	r2, .L11+44
 403 006a 9160     		str	r1, [r2, #8]
 634:X-CUBE-AI/App/network.c ****     gemm_5_output_array.data = AI_PTR(g_network_activations_map[0] + 0);
 404              		.loc 1 634 5 is_stmt 1 view .LVU164
 634:X-CUBE-AI/App/network.c ****     gemm_5_output_array.data = AI_PTR(g_network_activations_map[0] + 0);
 405              		.loc 1 634 37 is_stmt 0 view .LVU165
 406 006c D160     		str	r1, [r2, #12]
 635:X-CUBE-AI/App/network.c ****     gemm_5_output_array.data_start = AI_PTR(g_network_activations_map[0] + 0);
 407              		.loc 1 635 5 is_stmt 1 view .LVU166
 635:X-CUBE-AI/App/network.c ****     gemm_5_output_array.data_start = AI_PTR(g_network_activations_map[0] + 0);
 408              		.loc 1 635 30 is_stmt 0 view .LVU167
 409 006e 134A     		ldr	r2, .L11+48
 410 0070 9360     		str	r3, [r2, #8]
 636:X-CUBE-AI/App/network.c ****     nl_6_output_array.data = AI_PTR(g_network_activations_map[0] + 52);
 411              		.loc 1 636 5 is_stmt 1 view .LVU168
 636:X-CUBE-AI/App/network.c ****     nl_6_output_array.data = AI_PTR(g_network_activations_map[0] + 52);
 412              		.loc 1 636 36 is_stmt 0 view .LVU169
 413 0072 D360     		str	r3, [r2, #12]
 637:X-CUBE-AI/App/network.c ****     nl_6_output_array.data_start = AI_PTR(g_network_activations_map[0] + 52);
 414              		.loc 1 637 5 is_stmt 1 view .LVU170
 637:X-CUBE-AI/App/network.c ****     nl_6_output_array.data_start = AI_PTR(g_network_activations_map[0] + 52);
 415              		.loc 1 637 30 is_stmt 0 view .LVU171
 416 0074 3433     		adds	r3, r3, #52
 637:X-CUBE-AI/App/network.c ****     nl_6_output_array.data_start = AI_PTR(g_network_activations_map[0] + 52);
 417              		.loc 1 637 28 view .LVU172
 418 0076 124A     		ldr	r2, .L11+52
 419 0078 9360     		str	r3, [r2, #8]
 638:X-CUBE-AI/App/network.c ****     return true;
 420              		.loc 1 638 5 is_stmt 1 view .LVU173
 638:X-CUBE-AI/App/network.c ****     return true;
 421              		.loc 1 638 34 is_stmt 0 view .LVU174
 422 007a D360     		str	r3, [r2, #12]
 639:X-CUBE-AI/App/network.c ****   }
 423              		.loc 1 639 5 is_stmt 1 view .LVU175
 424              	.L9:
 643:X-CUBE-AI/App/network.c **** 
 425              		.loc 1 643 1 is_stmt 0 view .LVU176
 426 007c 2846     		mov	r0, r5
 427 007e 38BD     		pop	{r3, r4, r5, pc}
 428              	.LVL10:
 429              	.L8:
 641:X-CUBE-AI/App/network.c ****   return false;
 430              		.loc 1 641 3 is_stmt 1 view .LVU177
ARM GAS  /tmp/ccAaiSfb.s 			page 22


 431 0080 1322     		movs	r2, #19
 432 0082 3021     		movs	r1, #48
 433 0084 2046     		mov	r0, r4
 434 0086 FFF7FEFF 		bl	ai_platform_network_set_error
 435              	.LVL11:
 642:X-CUBE-AI/App/network.c **** }
 436              		.loc 1 642 3 view .LVU178
 642:X-CUBE-AI/App/network.c **** }
 437              		.loc 1 642 10 is_stmt 0 view .LVU179
 438 008a F7E7     		b	.L9
 439              	.L12:
 440              		.align	2
 441              	.L11:
 442 008c 00000000 		.word	g_network_activations_map
 443 0090 00000000 		.word	serving_default_keras_tensor_1030_output_array
 444 0094 00000000 		.word	gemm_0_output_array
 445 0098 00000000 		.word	nl_0_nl_output_array
 446 009c 00000000 		.word	gemm_1_output_array
 447 00a0 00000000 		.word	nl_1_nl_output_array
 448 00a4 00000000 		.word	gemm_2_output_array
 449 00a8 00000000 		.word	nl_2_nl_output_array
 450 00ac 00000000 		.word	gemm_3_output_array
 451 00b0 00000000 		.word	nl_3_nl_output_array
 452 00b4 00000000 		.word	gemm_4_output_array
 453 00b8 00000000 		.word	nl_4_nl_output_array
 454 00bc 00000000 		.word	gemm_5_output_array
 455 00c0 00000000 		.word	nl_6_output_array
 456              		.cfi_endproc
 457              	.LFE4:
 459              		.section	.rodata.ai_network_get_info.str1.4,"aMS",%progbits,1
 460              		.align	2
 461              	.LC0:
 462 0000 6E657477 		.ascii	"network\000"
 462      6F726B00 
 463              		.align	2
 464              	.LC1:
 465 0008 30783861 		.ascii	"0x8aae9a236176b6412c08922308950c98\000"
 465      61653961 
 465      32333631 
 465      37366236 
 465      34313263 
 466 002b 00       		.align	2
 467              	.LC2:
 468 002c 32303236 		.ascii	"2026-04-20T16:12:20+0200\000"
 468      2D30342D 
 468      32305431 
 468      363A3132 
 468      3A32302B 
 469 0045 000000   		.align	2
 470              	.LC3:
 471 0048 41707220 		.ascii	"Apr 20 2026 16:12:39\000"
 471      32302032 
 471      30323620 
 471      31363A31 
 471      323A3339 
 472 005d 000000   		.align	2
 473              	.LC4:
ARM GAS  /tmp/ccAaiSfb.s 			page 23


 474 0060 00       		.ascii	"\000"
 475              		.section	.text.ai_network_get_info,"ax",%progbits
 476              		.align	1
 477              		.global	ai_network_get_info
 478              		.syntax unified
 479              		.thumb
 480              		.thumb_func
 482              	ai_network_get_info:
 483              	.LVL12:
 484              	.LFB6:
 699:X-CUBE-AI/App/network.c **** 
 700:X-CUBE-AI/App/network.c **** 
 701:X-CUBE-AI/App/network.c **** /**  PUBLIC APIs SECTION  *****************************************************/
 702:X-CUBE-AI/App/network.c **** 
 703:X-CUBE-AI/App/network.c **** 
 704:X-CUBE-AI/App/network.c **** 
 705:X-CUBE-AI/App/network.c **** AI_DEPRECATED
 706:X-CUBE-AI/App/network.c **** AI_API_ENTRY
 707:X-CUBE-AI/App/network.c **** ai_bool ai_network_get_info(
 708:X-CUBE-AI/App/network.c ****   ai_handle network, ai_network_report* report)
 709:X-CUBE-AI/App/network.c **** {
 485              		.loc 1 709 1 is_stmt 1 view -0
 486              		.cfi_startproc
 487              		@ args = 0, pretend = 0, frame = 136
 488              		@ frame_needed = 0, uses_anonymous_args = 0
 489              		.loc 1 709 1 is_stmt 0 view .LVU181
 490 0000 30B5     		push	{r4, r5, lr}
 491              	.LCFI2:
 492              		.cfi_def_cfa_offset 12
 493              		.cfi_offset 4, -12
 494              		.cfi_offset 5, -8
 495              		.cfi_offset 14, -4
 496 0002 A3B0     		sub	sp, sp, #140
 497              	.LCFI3:
 498              		.cfi_def_cfa_offset 152
 499 0004 0546     		mov	r5, r0
 500 0006 0C46     		mov	r4, r1
 710:X-CUBE-AI/App/network.c ****   ai_network* net_ctx = AI_NETWORK_ACQUIRE_CTX(network);
 501              		.loc 1 710 3 is_stmt 1 view .LVU182
 502              		.loc 1 710 25 is_stmt 0 view .LVU183
 503 0008 FFF7FEFF 		bl	ai_platform_context_acquire
 504              	.LVL13:
 711:X-CUBE-AI/App/network.c **** 
 712:X-CUBE-AI/App/network.c ****   if (report && net_ctx)
 505              		.loc 1 712 3 is_stmt 1 view .LVU184
 506              		.loc 1 712 6 is_stmt 0 view .LVU185
 507 000c 002C     		cmp	r4, #0
 508 000e 33D0     		beq	.L16
 509              		.loc 1 712 14 discriminator 1 view .LVU186
 510 0010 0028     		cmp	r0, #0
 511 0012 33D0     		beq	.L17
 512              	.LBB2:
 713:X-CUBE-AI/App/network.c ****   {
 714:X-CUBE-AI/App/network.c ****     ai_network_report r = {
 513              		.loc 1 714 5 is_stmt 1 view .LVU187
 514              		.loc 1 714 23 is_stmt 0 view .LVU188
 515 0014 8822     		movs	r2, #136
ARM GAS  /tmp/ccAaiSfb.s 			page 24


 516 0016 0021     		movs	r1, #0
 517 0018 6846     		mov	r0, sp
 518              	.LVL14:
 519              		.loc 1 714 23 view .LVU189
 520 001a FFF7FEFF 		bl	memset
 521              	.LVL15:
 522 001e 194B     		ldr	r3, .L19
 523 0020 0093     		str	r3, [sp]
 524 0022 194B     		ldr	r3, .L19+4
 525 0024 0193     		str	r3, [sp, #4]
 526 0026 194B     		ldr	r3, .L19+8
 527 0028 0293     		str	r3, [sp, #8]
 528 002a 194B     		ldr	r3, .L19+12
 529 002c 0393     		str	r3, [sp, #12]
 715:X-CUBE-AI/App/network.c ****       .model_name        = AI_NETWORK_MODEL_NAME,
 716:X-CUBE-AI/App/network.c ****       .model_signature   = AI_NETWORK_MODEL_SIGNATURE,
 717:X-CUBE-AI/App/network.c ****       .model_datetime    = AI_TOOLS_DATE_TIME,
 718:X-CUBE-AI/App/network.c ****       
 719:X-CUBE-AI/App/network.c ****       .compile_datetime  = AI_TOOLS_COMPILE_TIME,
 720:X-CUBE-AI/App/network.c ****       
 721:X-CUBE-AI/App/network.c ****       .runtime_revision  = ai_platform_runtime_get_revision(),
 530              		.loc 1 721 28 view .LVU190
 531 002e FFF7FEFF 		bl	ai_platform_runtime_get_revision
 532              	.LVL16:
 714:X-CUBE-AI/App/network.c ****       .model_name        = AI_NETWORK_MODEL_NAME,
 533              		.loc 1 714 23 view .LVU191
 534 0032 0490     		str	r0, [sp, #16]
 722:X-CUBE-AI/App/network.c ****       .runtime_version   = ai_platform_runtime_get_version(),
 535              		.loc 1 722 28 view .LVU192
 536 0034 FFF7FEFF 		bl	ai_platform_runtime_get_version
 537              	.LVL17:
 538 0038 0590     		str	r0, [sp, #20]
 714:X-CUBE-AI/App/network.c ****       .model_name        = AI_NETWORK_MODEL_NAME,
 539              		.loc 1 714 23 view .LVU193
 540 003a 164B     		ldr	r3, .L19+16
 541 003c 0693     		str	r3, [sp, #24]
 542 003e 0223     		movs	r3, #2
 543 0040 8DF81C30 		strb	r3, [sp, #28]
 544 0044 8DF81D30 		strb	r3, [sp, #29]
 723:X-CUBE-AI/App/network.c **** 
 724:X-CUBE-AI/App/network.c ****       .tool_revision     = AI_TOOLS_REVISION_ID,
 725:X-CUBE-AI/App/network.c ****       .tool_version      = {AI_TOOLS_VERSION_MAJOR, AI_TOOLS_VERSION_MINOR,
 726:X-CUBE-AI/App/network.c ****                             AI_TOOLS_VERSION_MICRO, 0x0},
 727:X-CUBE-AI/App/network.c ****       .tool_api_version  = AI_STRUCT_INIT,
 728:X-CUBE-AI/App/network.c **** 
 729:X-CUBE-AI/App/network.c ****       .api_version            = ai_platform_api_get_version(),
 545              		.loc 1 729 33 view .LVU194
 546 0048 FFF7FEFF 		bl	ai_platform_api_get_version
 547              	.LVL18:
 548 004c 0990     		str	r0, [sp, #36]
 730:X-CUBE-AI/App/network.c ****       .interface_api_version  = ai_platform_interface_api_get_version(),
 549              		.loc 1 730 33 view .LVU195
 550 004e FFF7FEFF 		bl	ai_platform_interface_api_get_version
 551              	.LVL19:
 552 0052 0A90     		str	r0, [sp, #40]
 714:X-CUBE-AI/App/network.c ****       .model_name        = AI_NETWORK_MODEL_NAME,
 553              		.loc 1 714 23 view .LVU196
ARM GAS  /tmp/ccAaiSfb.s 			page 25


 554 0054 104A     		ldr	r2, .L19+20
 555 0056 0023     		movs	r3, #0
 556 0058 CDE90C23 		strd	r2, [sp, #48]
 557 005c 0F4B     		ldr	r3, .L19+24
 558 005e 2093     		str	r3, [sp, #128]
 731:X-CUBE-AI/App/network.c ****       
 732:X-CUBE-AI/App/network.c ****       .n_macc            = 97232,
 733:X-CUBE-AI/App/network.c ****       .n_inputs          = 0,
 734:X-CUBE-AI/App/network.c ****       .inputs            = NULL,
 735:X-CUBE-AI/App/network.c ****       .n_outputs         = 0,
 736:X-CUBE-AI/App/network.c ****       .outputs           = NULL,
 737:X-CUBE-AI/App/network.c ****       .params            = AI_STRUCT_INIT,
 738:X-CUBE-AI/App/network.c ****       .activations       = AI_STRUCT_INIT,
 739:X-CUBE-AI/App/network.c ****       .n_nodes           = 0,
 740:X-CUBE-AI/App/network.c ****       .signature         = 0x511058ca,
 741:X-CUBE-AI/App/network.c ****     };
 742:X-CUBE-AI/App/network.c **** 
 743:X-CUBE-AI/App/network.c ****     if (!ai_platform_api_get_network_report(network, &r)) return false;
 559              		.loc 1 743 5 is_stmt 1 view .LVU197
 560              		.loc 1 743 10 is_stmt 0 view .LVU198
 561 0060 6946     		mov	r1, sp
 562 0062 2846     		mov	r0, r5
 563 0064 FFF7FEFF 		bl	ai_platform_api_get_network_report
 564              	.LVL20:
 565              		.loc 1 743 8 discriminator 1 view .LVU199
 566 0068 0546     		mov	r5, r0
 567              	.LVL21:
 568              		.loc 1 743 8 discriminator 1 view .LVU200
 569 006a 40B1     		cbz	r0, .L14
 744:X-CUBE-AI/App/network.c **** 
 745:X-CUBE-AI/App/network.c ****     *report = r;
 570              		.loc 1 745 5 is_stmt 1 view .LVU201
 571              		.loc 1 745 13 is_stmt 0 view .LVU202
 572 006c 8822     		movs	r2, #136
 573 006e 6946     		mov	r1, sp
 574 0070 2046     		mov	r0, r4
 575 0072 FFF7FEFF 		bl	memcpy
 576              	.LVL22:
 746:X-CUBE-AI/App/network.c ****     return true;
 577              		.loc 1 746 5 is_stmt 1 view .LVU203
 578              		.loc 1 746 12 is_stmt 0 view .LVU204
 579 0076 02E0     		b	.L14
 580              	.LVL23:
 581              	.L16:
 582              		.loc 1 746 12 view .LVU205
 583              	.LBE2:
 747:X-CUBE-AI/App/network.c ****   }
 748:X-CUBE-AI/App/network.c ****   return false;
 584              		.loc 1 748 10 view .LVU206
 585 0078 0025     		movs	r5, #0
 586              	.LVL24:
 587              		.loc 1 748 10 view .LVU207
 588 007a 00E0     		b	.L14
 589              	.LVL25:
 590              	.L17:
 591              		.loc 1 748 10 view .LVU208
 592 007c 0025     		movs	r5, #0
ARM GAS  /tmp/ccAaiSfb.s 			page 26


 593              	.LVL26:
 594              	.L14:
 749:X-CUBE-AI/App/network.c **** }
 595              		.loc 1 749 1 view .LVU209
 596 007e 2846     		mov	r0, r5
 597 0080 23B0     		add	sp, sp, #140
 598              	.LCFI4:
 599              		.cfi_def_cfa_offset 12
 600              		@ sp needed
 601 0082 30BD     		pop	{r4, r5, pc}
 602              	.LVL27:
 603              	.L20:
 604              		.loc 1 749 1 view .LVU210
 605              		.align	2
 606              	.L19:
 607 0084 00000000 		.word	.LC0
 608 0088 08000000 		.word	.LC1
 609 008c 2C000000 		.word	.LC2
 610 0090 48000000 		.word	.LC3
 611 0094 60000000 		.word	.LC4
 612 0098 D07B0100 		.word	97232
 613 009c CA581051 		.word	1360025802
 614              		.cfi_endproc
 615              	.LFE6:
 617              		.section	.text.ai_network_get_report,"ax",%progbits
 618              		.align	1
 619              		.global	ai_network_get_report
 620              		.syntax unified
 621              		.thumb
 622              		.thumb_func
 624              	ai_network_get_report:
 625              	.LVL28:
 626              	.LFB7:
 750:X-CUBE-AI/App/network.c **** 
 751:X-CUBE-AI/App/network.c **** 
 752:X-CUBE-AI/App/network.c **** 
 753:X-CUBE-AI/App/network.c **** AI_API_ENTRY
 754:X-CUBE-AI/App/network.c **** ai_bool ai_network_get_report(
 755:X-CUBE-AI/App/network.c ****   ai_handle network, ai_network_report* report)
 756:X-CUBE-AI/App/network.c **** {
 627              		.loc 1 756 1 is_stmt 1 view -0
 628              		.cfi_startproc
 629              		@ args = 0, pretend = 0, frame = 136
 630              		@ frame_needed = 0, uses_anonymous_args = 0
 631              		.loc 1 756 1 is_stmt 0 view .LVU212
 632 0000 30B5     		push	{r4, r5, lr}
 633              	.LCFI5:
 634              		.cfi_def_cfa_offset 12
 635              		.cfi_offset 4, -12
 636              		.cfi_offset 5, -8
 637              		.cfi_offset 14, -4
 638 0002 A3B0     		sub	sp, sp, #140
 639              	.LCFI6:
 640              		.cfi_def_cfa_offset 152
 641 0004 0546     		mov	r5, r0
 642 0006 0C46     		mov	r4, r1
 757:X-CUBE-AI/App/network.c ****   ai_network* net_ctx = AI_NETWORK_ACQUIRE_CTX(network);
ARM GAS  /tmp/ccAaiSfb.s 			page 27


 643              		.loc 1 757 3 is_stmt 1 view .LVU213
 644              		.loc 1 757 25 is_stmt 0 view .LVU214
 645 0008 FFF7FEFF 		bl	ai_platform_context_acquire
 646              	.LVL29:
 758:X-CUBE-AI/App/network.c **** 
 759:X-CUBE-AI/App/network.c ****   if (report && net_ctx)
 647              		.loc 1 759 3 is_stmt 1 view .LVU215
 648              		.loc 1 759 6 is_stmt 0 view .LVU216
 649 000c 002C     		cmp	r4, #0
 650 000e 3AD0     		beq	.L24
 651              		.loc 1 759 14 discriminator 1 view .LVU217
 652 0010 0028     		cmp	r0, #0
 653 0012 3AD0     		beq	.L25
 654              	.LBB3:
 760:X-CUBE-AI/App/network.c ****   {
 761:X-CUBE-AI/App/network.c ****     ai_network_report r = {
 655              		.loc 1 761 5 is_stmt 1 view .LVU218
 656              		.loc 1 761 23 is_stmt 0 view .LVU219
 657 0014 8822     		movs	r2, #136
 658 0016 0021     		movs	r1, #0
 659 0018 6846     		mov	r0, sp
 660              	.LVL30:
 661              		.loc 1 761 23 view .LVU220
 662 001a FFF7FEFF 		bl	memset
 663              	.LVL31:
 664 001e 1D4B     		ldr	r3, .L27
 665 0020 0093     		str	r3, [sp]
 666 0022 1D4B     		ldr	r3, .L27+4
 667 0024 0193     		str	r3, [sp, #4]
 668 0026 1D4B     		ldr	r3, .L27+8
 669 0028 0293     		str	r3, [sp, #8]
 670 002a 1D4B     		ldr	r3, .L27+12
 671 002c 0393     		str	r3, [sp, #12]
 762:X-CUBE-AI/App/network.c ****       .model_name        = AI_NETWORK_MODEL_NAME,
 763:X-CUBE-AI/App/network.c ****       .model_signature   = AI_NETWORK_MODEL_SIGNATURE,
 764:X-CUBE-AI/App/network.c ****       .model_datetime    = AI_TOOLS_DATE_TIME,
 765:X-CUBE-AI/App/network.c ****       
 766:X-CUBE-AI/App/network.c ****       .compile_datetime  = AI_TOOLS_COMPILE_TIME,
 767:X-CUBE-AI/App/network.c ****       
 768:X-CUBE-AI/App/network.c ****       .runtime_revision  = ai_platform_runtime_get_revision(),
 672              		.loc 1 768 28 view .LVU221
 673 002e FFF7FEFF 		bl	ai_platform_runtime_get_revision
 674              	.LVL32:
 761:X-CUBE-AI/App/network.c ****       .model_name        = AI_NETWORK_MODEL_NAME,
 675              		.loc 1 761 23 view .LVU222
 676 0032 0490     		str	r0, [sp, #16]
 769:X-CUBE-AI/App/network.c ****       .runtime_version   = ai_platform_runtime_get_version(),
 677              		.loc 1 769 28 view .LVU223
 678 0034 FFF7FEFF 		bl	ai_platform_runtime_get_version
 679              	.LVL33:
 680 0038 0590     		str	r0, [sp, #20]
 761:X-CUBE-AI/App/network.c ****       .model_name        = AI_NETWORK_MODEL_NAME,
 681              		.loc 1 761 23 view .LVU224
 682 003a 1A4B     		ldr	r3, .L27+16
 683 003c 0693     		str	r3, [sp, #24]
 684 003e 0223     		movs	r3, #2
 685 0040 8DF81C30 		strb	r3, [sp, #28]
ARM GAS  /tmp/ccAaiSfb.s 			page 28


 686 0044 8DF81D30 		strb	r3, [sp, #29]
 770:X-CUBE-AI/App/network.c **** 
 771:X-CUBE-AI/App/network.c ****       .tool_revision     = AI_TOOLS_REVISION_ID,
 772:X-CUBE-AI/App/network.c ****       .tool_version      = {AI_TOOLS_VERSION_MAJOR, AI_TOOLS_VERSION_MINOR,
 773:X-CUBE-AI/App/network.c ****                             AI_TOOLS_VERSION_MICRO, 0x0},
 774:X-CUBE-AI/App/network.c ****       .tool_api_version  = AI_STRUCT_INIT,
 775:X-CUBE-AI/App/network.c **** 
 776:X-CUBE-AI/App/network.c ****       .api_version            = ai_platform_api_get_version(),
 687              		.loc 1 776 33 view .LVU225
 688 0048 FFF7FEFF 		bl	ai_platform_api_get_version
 689              	.LVL34:
 690 004c 0990     		str	r0, [sp, #36]
 777:X-CUBE-AI/App/network.c ****       .interface_api_version  = ai_platform_interface_api_get_version(),
 691              		.loc 1 777 33 view .LVU226
 692 004e FFF7FEFF 		bl	ai_platform_interface_api_get_version
 693              	.LVL35:
 694 0052 0A90     		str	r0, [sp, #40]
 761:X-CUBE-AI/App/network.c ****       .model_name        = AI_NETWORK_MODEL_NAME,
 695              		.loc 1 761 23 view .LVU227
 696 0054 144A     		ldr	r2, .L27+20
 697 0056 0023     		movs	r3, #0
 698 0058 CDE90C23 		strd	r2, [sp, #48]
 699 005c 134B     		ldr	r3, .L27+24
 700 005e 1193     		str	r3, [sp, #68]
 701 0060 03F12F43 		add	r3, r3, #-1358954496
 702 0064 03F5AC13 		add	r3, r3, #1409024
 703 0068 03F6EC53 		addw	r3, r3, #3564
 704 006c 2093     		str	r3, [sp, #128]
 778:X-CUBE-AI/App/network.c ****       
 779:X-CUBE-AI/App/network.c ****       .n_macc            = 97232,
 780:X-CUBE-AI/App/network.c ****       .n_inputs          = 0,
 781:X-CUBE-AI/App/network.c ****       .inputs            = NULL,
 782:X-CUBE-AI/App/network.c ****       .n_outputs         = 0,
 783:X-CUBE-AI/App/network.c ****       .outputs           = NULL,
 784:X-CUBE-AI/App/network.c ****       .map_signature     = AI_MAGIC_SIGNATURE,
 785:X-CUBE-AI/App/network.c ****       .map_weights       = AI_STRUCT_INIT,
 786:X-CUBE-AI/App/network.c ****       .map_activations   = AI_STRUCT_INIT,
 787:X-CUBE-AI/App/network.c ****       .n_nodes           = 0,
 788:X-CUBE-AI/App/network.c ****       .signature         = 0x511058ca,
 789:X-CUBE-AI/App/network.c ****     };
 790:X-CUBE-AI/App/network.c **** 
 791:X-CUBE-AI/App/network.c ****     if (!ai_platform_api_get_network_report(network, &r)) return false;
 705              		.loc 1 791 5 is_stmt 1 view .LVU228
 706              		.loc 1 791 10 is_stmt 0 view .LVU229
 707 006e 6946     		mov	r1, sp
 708 0070 2846     		mov	r0, r5
 709 0072 FFF7FEFF 		bl	ai_platform_api_get_network_report
 710              	.LVL36:
 711              		.loc 1 791 8 discriminator 1 view .LVU230
 712 0076 0546     		mov	r5, r0
 713              	.LVL37:
 714              		.loc 1 791 8 discriminator 1 view .LVU231
 715 0078 40B1     		cbz	r0, .L22
 792:X-CUBE-AI/App/network.c **** 
 793:X-CUBE-AI/App/network.c ****     *report = r;
 716              		.loc 1 793 5 is_stmt 1 view .LVU232
 717              		.loc 1 793 13 is_stmt 0 view .LVU233
ARM GAS  /tmp/ccAaiSfb.s 			page 29


 718 007a 8822     		movs	r2, #136
 719 007c 6946     		mov	r1, sp
 720 007e 2046     		mov	r0, r4
 721 0080 FFF7FEFF 		bl	memcpy
 722              	.LVL38:
 794:X-CUBE-AI/App/network.c ****     return true;
 723              		.loc 1 794 5 is_stmt 1 view .LVU234
 724              		.loc 1 794 12 is_stmt 0 view .LVU235
 725 0084 02E0     		b	.L22
 726              	.LVL39:
 727              	.L24:
 728              		.loc 1 794 12 view .LVU236
 729              	.LBE3:
 795:X-CUBE-AI/App/network.c ****   }
 796:X-CUBE-AI/App/network.c ****   return false;
 730              		.loc 1 796 10 view .LVU237
 731 0086 0025     		movs	r5, #0
 732              	.LVL40:
 733              		.loc 1 796 10 view .LVU238
 734 0088 00E0     		b	.L22
 735              	.LVL41:
 736              	.L25:
 737              		.loc 1 796 10 view .LVU239
 738 008a 0025     		movs	r5, #0
 739              	.LVL42:
 740              	.L22:
 797:X-CUBE-AI/App/network.c **** }
 741              		.loc 1 797 1 view .LVU240
 742 008c 2846     		mov	r0, r5
 743 008e 23B0     		add	sp, sp, #140
 744              	.LCFI7:
 745              		.cfi_def_cfa_offset 12
 746              		@ sp needed
 747 0090 30BD     		pop	{r4, r5, pc}
 748              	.LVL43:
 749              	.L28:
 750              		.loc 1 797 1 view .LVU241
 751 0092 00BF     		.align	2
 752              	.L27:
 753 0094 00000000 		.word	.LC0
 754 0098 08000000 		.word	.LC1
 755 009c 2C000000 		.word	.LC2
 756 00a0 48000000 		.word	.LC3
 757 00a4 60000000 		.word	.LC4
 758 00a8 D07B0100 		.word	97232
 759 00ac DECAFAA1 		.word	-1577399586
 760              		.cfi_endproc
 761              	.LFE7:
 763              		.section	.text.ai_network_get_error,"ax",%progbits
 764              		.align	1
 765              		.global	ai_network_get_error
 766              		.syntax unified
 767              		.thumb
 768              		.thumb_func
 770              	ai_network_get_error:
 771              	.LVL44:
 772              	.LFB8:
ARM GAS  /tmp/ccAaiSfb.s 			page 30


 798:X-CUBE-AI/App/network.c **** 
 799:X-CUBE-AI/App/network.c **** 
 800:X-CUBE-AI/App/network.c **** AI_API_ENTRY
 801:X-CUBE-AI/App/network.c **** ai_error ai_network_get_error(ai_handle network)
 802:X-CUBE-AI/App/network.c **** {
 773              		.loc 1 802 1 is_stmt 1 view -0
 774              		.cfi_startproc
 775              		@ args = 0, pretend = 0, frame = 0
 776              		@ frame_needed = 0, uses_anonymous_args = 0
 777              		.loc 1 802 1 is_stmt 0 view .LVU243
 778 0000 08B5     		push	{r3, lr}
 779              	.LCFI8:
 780              		.cfi_def_cfa_offset 8
 781              		.cfi_offset 3, -8
 782              		.cfi_offset 14, -4
 803:X-CUBE-AI/App/network.c ****   return ai_platform_network_get_error(network);
 783              		.loc 1 803 3 is_stmt 1 view .LVU244
 784              		.loc 1 803 10 is_stmt 0 view .LVU245
 785 0002 FFF7FEFF 		bl	ai_platform_network_get_error
 786              	.LVL45:
 804:X-CUBE-AI/App/network.c **** }
 787              		.loc 1 804 1 view .LVU246
 788 0006 08BD     		pop	{r3, pc}
 789              		.cfi_endproc
 790              	.LFE8:
 792              		.section	.text.ai_network_create,"ax",%progbits
 793              		.align	1
 794              		.global	ai_network_create
 795              		.syntax unified
 796              		.thumb
 797              		.thumb_func
 799              	ai_network_create:
 800              	.LVL46:
 801              	.LFB9:
 805:X-CUBE-AI/App/network.c **** 
 806:X-CUBE-AI/App/network.c **** 
 807:X-CUBE-AI/App/network.c **** AI_API_ENTRY
 808:X-CUBE-AI/App/network.c **** ai_error ai_network_create(
 809:X-CUBE-AI/App/network.c ****   ai_handle* network, const ai_buffer* network_config)
 810:X-CUBE-AI/App/network.c **** {
 802              		.loc 1 810 1 is_stmt 1 view -0
 803              		.cfi_startproc
 804              		@ args = 0, pretend = 0, frame = 0
 805              		@ frame_needed = 0, uses_anonymous_args = 0
 806              		.loc 1 810 1 is_stmt 0 view .LVU248
 807 0000 00B5     		push	{lr}
 808              	.LCFI9:
 809              		.cfi_def_cfa_offset 4
 810              		.cfi_offset 14, -4
 811 0002 83B0     		sub	sp, sp, #12
 812              	.LCFI10:
 813              		.cfi_def_cfa_offset 16
 811:X-CUBE-AI/App/network.c ****   return ai_platform_network_create(
 814              		.loc 1 811 3 is_stmt 1 view .LVU249
 815              		.loc 1 811 10 is_stmt 0 view .LVU250
 816 0004 0023     		movs	r3, #0
 817 0006 0193     		str	r3, [sp, #4]
ARM GAS  /tmp/ccAaiSfb.s 			page 31


 818 0008 0523     		movs	r3, #5
 819 000a 0093     		str	r3, [sp]
 820 000c 0123     		movs	r3, #1
 821 000e 034A     		ldr	r2, .L33
 822 0010 FFF7FEFF 		bl	ai_platform_network_create
 823              	.LVL47:
 812:X-CUBE-AI/App/network.c ****     network, network_config, 
 813:X-CUBE-AI/App/network.c ****     AI_CONTEXT_OBJ(&AI_NET_OBJ_INSTANCE),
 814:X-CUBE-AI/App/network.c ****     AI_TOOLS_API_VERSION_MAJOR, AI_TOOLS_API_VERSION_MINOR, AI_TOOLS_API_VERSION_MICRO);
 815:X-CUBE-AI/App/network.c **** }
 824              		.loc 1 815 1 view .LVU251
 825 0014 03B0     		add	sp, sp, #12
 826              	.LCFI11:
 827              		.cfi_def_cfa_offset 4
 828              		@ sp needed
 829 0016 5DF804FB 		ldr	pc, [sp], #4
 830              	.L34:
 831 001a 00BF     		.align	2
 832              	.L33:
 833 001c 00000000 		.word	g_network
 834              		.cfi_endproc
 835              	.LFE9:
 837              		.section	.text.ai_network_inputs_get,"ax",%progbits
 838              		.align	1
 839              		.global	ai_network_inputs_get
 840              		.syntax unified
 841              		.thumb
 842              		.thumb_func
 844              	ai_network_inputs_get:
 845              	.LVL48:
 846              	.LFB11:
 816:X-CUBE-AI/App/network.c **** 
 817:X-CUBE-AI/App/network.c **** 
 818:X-CUBE-AI/App/network.c **** AI_API_ENTRY
 819:X-CUBE-AI/App/network.c **** ai_error ai_network_create_and_init(
 820:X-CUBE-AI/App/network.c ****   ai_handle* network, const ai_handle activations[], const ai_handle weights[])
 821:X-CUBE-AI/App/network.c **** {
 822:X-CUBE-AI/App/network.c ****   ai_error err;
 823:X-CUBE-AI/App/network.c ****   ai_network_params params;
 824:X-CUBE-AI/App/network.c **** 
 825:X-CUBE-AI/App/network.c ****   err = ai_network_create(network, AI_NETWORK_DATA_CONFIG);
 826:X-CUBE-AI/App/network.c ****   if (err.type != AI_ERROR_NONE) {
 827:X-CUBE-AI/App/network.c ****     return err;
 828:X-CUBE-AI/App/network.c ****   }
 829:X-CUBE-AI/App/network.c ****   
 830:X-CUBE-AI/App/network.c ****   if (ai_network_data_params_get(&params) != true) {
 831:X-CUBE-AI/App/network.c ****     err = ai_network_get_error(*network);
 832:X-CUBE-AI/App/network.c ****     return err;
 833:X-CUBE-AI/App/network.c ****   }
 834:X-CUBE-AI/App/network.c **** #if defined(AI_NETWORK_DATA_ACTIVATIONS_COUNT)
 835:X-CUBE-AI/App/network.c ****   /* set the addresses of the activations buffers */
 836:X-CUBE-AI/App/network.c ****   for (ai_u16 idx=0; activations && idx<params.map_activations.size; idx++) {
 837:X-CUBE-AI/App/network.c ****     AI_BUFFER_ARRAY_ITEM_SET_ADDRESS(&params.map_activations, idx, activations[idx]);
 838:X-CUBE-AI/App/network.c ****   }
 839:X-CUBE-AI/App/network.c **** #endif
 840:X-CUBE-AI/App/network.c **** #if defined(AI_NETWORK_DATA_WEIGHTS_COUNT)
 841:X-CUBE-AI/App/network.c ****   /* set the addresses of the weight buffers */
ARM GAS  /tmp/ccAaiSfb.s 			page 32


 842:X-CUBE-AI/App/network.c ****   for (ai_u16 idx=0; weights && idx<params.map_weights.size; idx++) {
 843:X-CUBE-AI/App/network.c ****     AI_BUFFER_ARRAY_ITEM_SET_ADDRESS(&params.map_weights, idx, weights[idx]);
 844:X-CUBE-AI/App/network.c ****   }
 845:X-CUBE-AI/App/network.c **** #endif
 846:X-CUBE-AI/App/network.c ****   if (ai_network_init(*network, &params) != true) {
 847:X-CUBE-AI/App/network.c ****     err = ai_network_get_error(*network);
 848:X-CUBE-AI/App/network.c ****   }
 849:X-CUBE-AI/App/network.c ****   return err;
 850:X-CUBE-AI/App/network.c **** }
 851:X-CUBE-AI/App/network.c **** 
 852:X-CUBE-AI/App/network.c **** 
 853:X-CUBE-AI/App/network.c **** AI_API_ENTRY
 854:X-CUBE-AI/App/network.c **** ai_buffer* ai_network_inputs_get(ai_handle network, ai_u16 *n_buffer)
 855:X-CUBE-AI/App/network.c **** {
 847              		.loc 1 855 1 is_stmt 1 view -0
 848              		.cfi_startproc
 849              		@ args = 0, pretend = 0, frame = 0
 850              		@ frame_needed = 0, uses_anonymous_args = 0
 851              		.loc 1 855 1 is_stmt 0 view .LVU253
 852 0000 08B5     		push	{r3, lr}
 853              	.LCFI12:
 854              		.cfi_def_cfa_offset 8
 855              		.cfi_offset 3, -8
 856              		.cfi_offset 14, -4
 856:X-CUBE-AI/App/network.c ****   if (network == AI_HANDLE_NULL) {
 857              		.loc 1 856 3 is_stmt 1 view .LVU254
 858              		.loc 1 856 6 is_stmt 0 view .LVU255
 859 0002 10B1     		cbz	r0, .L38
 860              	.LVL49:
 861              	.L36:
 857:X-CUBE-AI/App/network.c ****     network = (ai_handle)&AI_NET_OBJ_INSTANCE;
 858:X-CUBE-AI/App/network.c ****     AI_NETWORK_OBJ(network)->magic = AI_MAGIC_CONTEXT_TOKEN;
 859:X-CUBE-AI/App/network.c ****   }
 860:X-CUBE-AI/App/network.c ****   return ai_platform_inputs_get(network, n_buffer);
 862              		.loc 1 860 3 is_stmt 1 view .LVU256
 863              		.loc 1 860 10 is_stmt 0 view .LVU257
 864 0004 FFF7FEFF 		bl	ai_platform_inputs_get
 865              	.LVL50:
 861:X-CUBE-AI/App/network.c **** }
 866              		.loc 1 861 1 view .LVU258
 867 0008 08BD     		pop	{r3, pc}
 868              	.LVL51:
 869              	.L38:
 857:X-CUBE-AI/App/network.c ****     network = (ai_handle)&AI_NET_OBJ_INSTANCE;
 870              		.loc 1 857 5 is_stmt 1 view .LVU259
 858:X-CUBE-AI/App/network.c ****   }
 871              		.loc 1 858 5 view .LVU260
 858:X-CUBE-AI/App/network.c ****   }
 872              		.loc 1 858 36 is_stmt 0 view .LVU261
 873 000a 0248     		ldr	r0, .L39
 874 000c 024B     		ldr	r3, .L39+4
 875 000e 0360     		str	r3, [r0]
 876 0010 F8E7     		b	.L36
 877              	.L40:
 878 0012 00BF     		.align	2
 879              	.L39:
 880 0014 00000000 		.word	g_network
ARM GAS  /tmp/ccAaiSfb.s 			page 33


 881 0018 0001C0A1 		.word	-1581252352
 882              		.cfi_endproc
 883              	.LFE11:
 885              		.section	.text.ai_network_outputs_get,"ax",%progbits
 886              		.align	1
 887              		.global	ai_network_outputs_get
 888              		.syntax unified
 889              		.thumb
 890              		.thumb_func
 892              	ai_network_outputs_get:
 893              	.LVL52:
 894              	.LFB12:
 862:X-CUBE-AI/App/network.c **** 
 863:X-CUBE-AI/App/network.c **** 
 864:X-CUBE-AI/App/network.c **** AI_API_ENTRY
 865:X-CUBE-AI/App/network.c **** ai_buffer* ai_network_outputs_get(ai_handle network, ai_u16 *n_buffer)
 866:X-CUBE-AI/App/network.c **** {
 895              		.loc 1 866 1 is_stmt 1 view -0
 896              		.cfi_startproc
 897              		@ args = 0, pretend = 0, frame = 0
 898              		@ frame_needed = 0, uses_anonymous_args = 0
 899              		.loc 1 866 1 is_stmt 0 view .LVU263
 900 0000 08B5     		push	{r3, lr}
 901              	.LCFI13:
 902              		.cfi_def_cfa_offset 8
 903              		.cfi_offset 3, -8
 904              		.cfi_offset 14, -4
 867:X-CUBE-AI/App/network.c ****   if (network == AI_HANDLE_NULL) {
 905              		.loc 1 867 3 is_stmt 1 view .LVU264
 906              		.loc 1 867 6 is_stmt 0 view .LVU265
 907 0002 10B1     		cbz	r0, .L44
 908              	.LVL53:
 909              	.L42:
 868:X-CUBE-AI/App/network.c ****     network = (ai_handle)&AI_NET_OBJ_INSTANCE;
 869:X-CUBE-AI/App/network.c ****     AI_NETWORK_OBJ(network)->magic = AI_MAGIC_CONTEXT_TOKEN;
 870:X-CUBE-AI/App/network.c ****   }
 871:X-CUBE-AI/App/network.c ****   return ai_platform_outputs_get(network, n_buffer);
 910              		.loc 1 871 3 is_stmt 1 view .LVU266
 911              		.loc 1 871 10 is_stmt 0 view .LVU267
 912 0004 FFF7FEFF 		bl	ai_platform_outputs_get
 913              	.LVL54:
 872:X-CUBE-AI/App/network.c **** }
 914              		.loc 1 872 1 view .LVU268
 915 0008 08BD     		pop	{r3, pc}
 916              	.LVL55:
 917              	.L44:
 868:X-CUBE-AI/App/network.c ****     network = (ai_handle)&AI_NET_OBJ_INSTANCE;
 918              		.loc 1 868 5 is_stmt 1 view .LVU269
 869:X-CUBE-AI/App/network.c ****   }
 919              		.loc 1 869 5 view .LVU270
 869:X-CUBE-AI/App/network.c ****   }
 920              		.loc 1 869 36 is_stmt 0 view .LVU271
 921 000a 0248     		ldr	r0, .L45
 922 000c 024B     		ldr	r3, .L45+4
 923 000e 0360     		str	r3, [r0]
 924 0010 F8E7     		b	.L42
 925              	.L46:
ARM GAS  /tmp/ccAaiSfb.s 			page 34


 926 0012 00BF     		.align	2
 927              	.L45:
 928 0014 00000000 		.word	g_network
 929 0018 0001C0A1 		.word	-1581252352
 930              		.cfi_endproc
 931              	.LFE12:
 933              		.section	.text.ai_network_destroy,"ax",%progbits
 934              		.align	1
 935              		.global	ai_network_destroy
 936              		.syntax unified
 937              		.thumb
 938              		.thumb_func
 940              	ai_network_destroy:
 941              	.LVL56:
 942              	.LFB13:
 873:X-CUBE-AI/App/network.c **** 
 874:X-CUBE-AI/App/network.c **** 
 875:X-CUBE-AI/App/network.c **** AI_API_ENTRY
 876:X-CUBE-AI/App/network.c **** ai_handle ai_network_destroy(ai_handle network)
 877:X-CUBE-AI/App/network.c **** {
 943              		.loc 1 877 1 is_stmt 1 view -0
 944              		.cfi_startproc
 945              		@ args = 0, pretend = 0, frame = 0
 946              		@ frame_needed = 0, uses_anonymous_args = 0
 947              		.loc 1 877 1 is_stmt 0 view .LVU273
 948 0000 08B5     		push	{r3, lr}
 949              	.LCFI14:
 950              		.cfi_def_cfa_offset 8
 951              		.cfi_offset 3, -8
 952              		.cfi_offset 14, -4
 878:X-CUBE-AI/App/network.c ****   return ai_platform_network_destroy(network);
 953              		.loc 1 878 3 is_stmt 1 view .LVU274
 954              		.loc 1 878 10 is_stmt 0 view .LVU275
 955 0002 FFF7FEFF 		bl	ai_platform_network_destroy
 956              	.LVL57:
 879:X-CUBE-AI/App/network.c **** }
 957              		.loc 1 879 1 view .LVU276
 958 0006 08BD     		pop	{r3, pc}
 959              		.cfi_endproc
 960              	.LFE13:
 962              		.section	.text.ai_network_init,"ax",%progbits
 963              		.align	1
 964              		.global	ai_network_init
 965              		.syntax unified
 966              		.thumb
 967              		.thumb_func
 969              	ai_network_init:
 970              	.LVL58:
 971              	.LFB14:
 880:X-CUBE-AI/App/network.c **** 
 881:X-CUBE-AI/App/network.c **** 
 882:X-CUBE-AI/App/network.c **** AI_API_ENTRY
 883:X-CUBE-AI/App/network.c **** ai_bool ai_network_init(
 884:X-CUBE-AI/App/network.c ****   ai_handle network, const ai_network_params* params)
 885:X-CUBE-AI/App/network.c **** {
 972              		.loc 1 885 1 is_stmt 1 view -0
 973              		.cfi_startproc
ARM GAS  /tmp/ccAaiSfb.s 			page 35


 974              		@ args = 0, pretend = 0, frame = 0
 975              		@ frame_needed = 0, uses_anonymous_args = 0
 976              		.loc 1 885 1 is_stmt 0 view .LVU278
 977 0000 F8B5     		push	{r3, r4, r5, r6, r7, lr}
 978              	.LCFI15:
 979              		.cfi_def_cfa_offset 24
 980              		.cfi_offset 3, -24
 981              		.cfi_offset 4, -20
 982              		.cfi_offset 5, -16
 983              		.cfi_offset 6, -12
 984              		.cfi_offset 7, -8
 985              		.cfi_offset 14, -4
 986 0002 0646     		mov	r6, r0
 987 0004 0D46     		mov	r5, r1
 886:X-CUBE-AI/App/network.c ****   ai_network* net_ctx = AI_NETWORK_OBJ(ai_platform_network_init(network, params));
 988              		.loc 1 886 3 is_stmt 1 view .LVU279
 989              		.loc 1 886 25 is_stmt 0 view .LVU280
 990 0006 FFF7FEFF 		bl	ai_platform_network_init
 991              	.LVL59:
 887:X-CUBE-AI/App/network.c ****   ai_bool ok = true;
 992              		.loc 1 887 3 is_stmt 1 view .LVU281
 888:X-CUBE-AI/App/network.c **** 
 889:X-CUBE-AI/App/network.c ****   if (!net_ctx) return false;
 993              		.loc 1 889 3 view .LVU282
 994              		.loc 1 889 6 is_stmt 0 view .LVU283
 995 000a 78B1     		cbz	r0, .L51
 996 000c 0746     		mov	r7, r0
 890:X-CUBE-AI/App/network.c ****   ok &= network_configure_weights(net_ctx, params);
 997              		.loc 1 890 3 is_stmt 1 view .LVU284
 998              		.loc 1 890 9 is_stmt 0 view .LVU285
 999 000e 2946     		mov	r1, r5
 1000 0010 FFF7FEFF 		bl	network_configure_weights
 1001              	.LVL60:
 1002              		.loc 1 890 9 view .LVU286
 1003 0014 0446     		mov	r4, r0
 1004              	.LVL61:
 891:X-CUBE-AI/App/network.c ****   ok &= network_configure_activations(net_ctx, params);
 1005              		.loc 1 891 3 is_stmt 1 view .LVU287
 1006              		.loc 1 891 9 is_stmt 0 view .LVU288
 1007 0016 2946     		mov	r1, r5
 1008 0018 3846     		mov	r0, r7
 1009 001a FFF7FEFF 		bl	network_configure_activations
 1010              	.LVL62:
 1011 001e 0440     		ands	r4, r4, r0
 1012              	.LVL63:
 1013              		.loc 1 891 9 view .LVU289
 1014 0020 E4B2     		uxtb	r4, r4
 1015              	.LVL64:
 892:X-CUBE-AI/App/network.c **** 
 893:X-CUBE-AI/App/network.c ****   ok &= ai_platform_network_post_init(network);
 1016              		.loc 1 893 3 is_stmt 1 view .LVU290
 1017              		.loc 1 893 9 is_stmt 0 view .LVU291
 1018 0022 3046     		mov	r0, r6
 1019 0024 FFF7FEFF 		bl	ai_platform_network_post_init
 1020              	.LVL65:
 1021 0028 2040     		ands	r0, r0, r4
 1022              	.LVL66:
ARM GAS  /tmp/ccAaiSfb.s 			page 36


 894:X-CUBE-AI/App/network.c **** 
 895:X-CUBE-AI/App/network.c ****   return ok;
 1023              		.loc 1 895 3 is_stmt 1 view .LVU292
 1024              	.L50:
 896:X-CUBE-AI/App/network.c **** }
 1025              		.loc 1 896 1 is_stmt 0 view .LVU293
 1026 002a F8BD     		pop	{r3, r4, r5, r6, r7, pc}
 1027              	.LVL67:
 1028              	.L51:
 889:X-CUBE-AI/App/network.c ****   ok &= network_configure_weights(net_ctx, params);
 1029              		.loc 1 889 24 discriminator 1 view .LVU294
 1030 002c 0020     		movs	r0, #0
 1031              	.LVL68:
 889:X-CUBE-AI/App/network.c ****   ok &= network_configure_weights(net_ctx, params);
 1032              		.loc 1 889 24 discriminator 1 view .LVU295
 1033 002e FCE7     		b	.L50
 1034              		.cfi_endproc
 1035              	.LFE14:
 1037              		.section	.text.ai_network_create_and_init,"ax",%progbits
 1038              		.align	1
 1039              		.global	ai_network_create_and_init
 1040              		.syntax unified
 1041              		.thumb
 1042              		.thumb_func
 1044              	ai_network_create_and_init:
 1045              	.LVL69:
 1046              	.LFB10:
 821:X-CUBE-AI/App/network.c ****   ai_error err;
 1047              		.loc 1 821 1 is_stmt 1 view -0
 1048              		.cfi_startproc
 1049              		@ args = 0, pretend = 0, frame = 56
 1050              		@ frame_needed = 0, uses_anonymous_args = 0
 821:X-CUBE-AI/App/network.c ****   ai_error err;
 1051              		.loc 1 821 1 is_stmt 0 view .LVU297
 1052 0000 2DE9F041 		push	{r4, r5, r6, r7, r8, lr}
 1053              	.LCFI16:
 1054              		.cfi_def_cfa_offset 24
 1055              		.cfi_offset 4, -24
 1056              		.cfi_offset 5, -20
 1057              		.cfi_offset 6, -16
 1058              		.cfi_offset 7, -12
 1059              		.cfi_offset 8, -8
 1060              		.cfi_offset 14, -4
 1061 0004 8EB0     		sub	sp, sp, #56
 1062              	.LCFI17:
 1063              		.cfi_def_cfa_offset 80
 1064 0006 8046     		mov	r8, r0
 1065 0008 0E46     		mov	r6, r1
 1066 000a 1546     		mov	r5, r2
 822:X-CUBE-AI/App/network.c ****   ai_network_params params;
 1067              		.loc 1 822 3 is_stmt 1 view .LVU298
 823:X-CUBE-AI/App/network.c **** 
 1068              		.loc 1 823 3 view .LVU299
 825:X-CUBE-AI/App/network.c ****   if (err.type != AI_ERROR_NONE) {
 1069              		.loc 1 825 3 view .LVU300
 825:X-CUBE-AI/App/network.c ****   if (err.type != AI_ERROR_NONE) {
 1070              		.loc 1 825 9 is_stmt 0 view .LVU301
ARM GAS  /tmp/ccAaiSfb.s 			page 37


 1071 000c 0021     		movs	r1, #0
 1072              	.LVL70:
 825:X-CUBE-AI/App/network.c ****   if (err.type != AI_ERROR_NONE) {
 1073              		.loc 1 825 9 view .LVU302
 1074 000e FFF7FEFF 		bl	ai_network_create
 1075              	.LVL71:
 825:X-CUBE-AI/App/network.c ****   if (err.type != AI_ERROR_NONE) {
 1076              		.loc 1 825 9 view .LVU303
 1077 0012 0746     		mov	r7, r0
 1078              	.LVL72:
 826:X-CUBE-AI/App/network.c ****     return err;
 1079              		.loc 1 826 3 is_stmt 1 view .LVU304
 826:X-CUBE-AI/App/network.c ****     return err;
 1080              		.loc 1 826 6 is_stmt 0 view .LVU305
 1081 0014 10F0FF0F 		tst	r0, #255
 1082 0018 02D0     		beq	.L54
 1083              	.LVL73:
 1084              	.L55:
 850:X-CUBE-AI/App/network.c **** 
 1085              		.loc 1 850 1 view .LVU306
 1086 001a 0EB0     		add	sp, sp, #56
 1087              	.LCFI18:
 1088              		.cfi_remember_state
 1089              		.cfi_def_cfa_offset 24
 1090              		@ sp needed
 1091 001c BDE8F081 		pop	{r4, r5, r6, r7, r8, pc}
 1092              	.LVL74:
 1093              	.L54:
 1094              	.LCFI19:
 1095              		.cfi_restore_state
 830:X-CUBE-AI/App/network.c ****     err = ai_network_get_error(*network);
 1096              		.loc 1 830 3 is_stmt 1 view .LVU307
 830:X-CUBE-AI/App/network.c ****     err = ai_network_get_error(*network);
 1097              		.loc 1 830 7 is_stmt 0 view .LVU308
 1098 0020 6846     		mov	r0, sp
 1099              	.LVL75:
 830:X-CUBE-AI/App/network.c ****     err = ai_network_get_error(*network);
 1100              		.loc 1 830 7 view .LVU309
 1101 0022 FFF7FEFF 		bl	ai_network_data_params_get
 1102              	.LVL76:
 830:X-CUBE-AI/App/network.c ****     err = ai_network_get_error(*network);
 1103              		.loc 1 830 6 discriminator 1 view .LVU310
 1104 0026 08B1     		cbz	r0, .L66
 1105              	.LBB4:
 836:X-CUBE-AI/App/network.c ****     AI_BUFFER_ARRAY_ITEM_SET_ADDRESS(&params.map_activations, idx, activations[idx]);
 1106              		.loc 1 836 15 view .LVU311
 1107 0028 0024     		movs	r4, #0
 1108 002a 0CE0     		b	.L56
 1109              	.L66:
 1110              	.LBE4:
 831:X-CUBE-AI/App/network.c ****     return err;
 1111              		.loc 1 831 5 is_stmt 1 view .LVU312
 831:X-CUBE-AI/App/network.c ****     return err;
 1112              		.loc 1 831 11 is_stmt 0 view .LVU313
 1113 002c D8F80000 		ldr	r0, [r8]
 1114 0030 FFF7FEFF 		bl	ai_network_get_error
 1115              	.LVL77:
ARM GAS  /tmp/ccAaiSfb.s 			page 38


 832:X-CUBE-AI/App/network.c ****   }
 1116              		.loc 1 832 5 is_stmt 1 view .LVU314
 832:X-CUBE-AI/App/network.c ****   }
 1117              		.loc 1 832 12 is_stmt 0 view .LVU315
 1118 0034 F1E7     		b	.L55
 1119              	.LVL78:
 1120              	.L58:
 1121              	.LBB5:
 837:X-CUBE-AI/App/network.c ****   }
 1122              		.loc 1 837 5 is_stmt 1 view .LVU316
 1123 0036 56F82420 		ldr	r2, [r6, r4, lsl #2]
 1124 003a 2146     		mov	r1, r4
 1125 003c 03A8     		add	r0, sp, #12
 1126 003e FFF7FEFF 		bl	ai_buffer_array_item_set_address
 1127              	.LVL79:
 836:X-CUBE-AI/App/network.c ****     AI_BUFFER_ARRAY_ITEM_SET_ADDRESS(&params.map_activations, idx, activations[idx]);
 1128              		.loc 1 836 73 discriminator 4 view .LVU317
 1129 0042 0134     		adds	r4, r4, #1
 1130              	.LVL80:
 836:X-CUBE-AI/App/network.c ****     AI_BUFFER_ARRAY_ITEM_SET_ADDRESS(&params.map_activations, idx, activations[idx]);
 1131              		.loc 1 836 73 is_stmt 0 discriminator 4 view .LVU318
 1132 0044 A4B2     		uxth	r4, r4
 1133              	.LVL81:
 1134              	.L56:
 836:X-CUBE-AI/App/network.c ****     AI_BUFFER_ARRAY_ITEM_SET_ADDRESS(&params.map_activations, idx, activations[idx]);
 1135              		.loc 1 836 34 is_stmt 1 discriminator 1 view .LVU319
 1136 0046 D6B1     		cbz	r6, .L64
 836:X-CUBE-AI/App/network.c ****     AI_BUFFER_ARRAY_ITEM_SET_ADDRESS(&params.map_activations, idx, activations[idx]);
 1137              		.loc 1 836 63 is_stmt 0 discriminator 3 view .LVU320
 1138 0048 BDF80E30 		ldrh	r3, [sp, #14]
 836:X-CUBE-AI/App/network.c ****     AI_BUFFER_ARRAY_ITEM_SET_ADDRESS(&params.map_activations, idx, activations[idx]);
 1139              		.loc 1 836 34 discriminator 3 view .LVU321
 1140 004c A342     		cmp	r3, r4
 1141 004e F2D8     		bhi	.L58
 1142 0050 0024     		movs	r4, #0
 1143              	.LVL82:
 836:X-CUBE-AI/App/network.c ****     AI_BUFFER_ARRAY_ITEM_SET_ADDRESS(&params.map_activations, idx, activations[idx]);
 1144              		.loc 1 836 34 discriminator 3 view .LVU322
 1145 0052 07E0     		b	.L59
 1146              	.LVL83:
 1147              	.L61:
 836:X-CUBE-AI/App/network.c ****     AI_BUFFER_ARRAY_ITEM_SET_ADDRESS(&params.map_activations, idx, activations[idx]);
 1148              		.loc 1 836 34 discriminator 3 view .LVU323
 1149              	.LBE5:
 1150              	.LBB6:
 843:X-CUBE-AI/App/network.c ****   }
 1151              		.loc 1 843 5 is_stmt 1 view .LVU324
 1152 0054 55F82420 		ldr	r2, [r5, r4, lsl #2]
 1153 0058 2146     		mov	r1, r4
 1154 005a 01A8     		add	r0, sp, #4
 1155 005c FFF7FEFF 		bl	ai_buffer_array_item_set_address
 1156              	.LVL84:
 842:X-CUBE-AI/App/network.c ****     AI_BUFFER_ARRAY_ITEM_SET_ADDRESS(&params.map_weights, idx, weights[idx]);
 1157              		.loc 1 842 65 discriminator 4 view .LVU325
 1158 0060 0134     		adds	r4, r4, #1
 1159              	.LVL85:
 842:X-CUBE-AI/App/network.c ****     AI_BUFFER_ARRAY_ITEM_SET_ADDRESS(&params.map_weights, idx, weights[idx]);
ARM GAS  /tmp/ccAaiSfb.s 			page 39


 1160              		.loc 1 842 65 is_stmt 0 discriminator 4 view .LVU326
 1161 0062 A4B2     		uxth	r4, r4
 1162              	.LVL86:
 1163              	.L59:
 842:X-CUBE-AI/App/network.c ****     AI_BUFFER_ARRAY_ITEM_SET_ADDRESS(&params.map_weights, idx, weights[idx]);
 1164              		.loc 1 842 30 is_stmt 1 discriminator 1 view .LVU327
 1165 0064 1DB1     		cbz	r5, .L60
 842:X-CUBE-AI/App/network.c ****     AI_BUFFER_ARRAY_ITEM_SET_ADDRESS(&params.map_weights, idx, weights[idx]);
 1166              		.loc 1 842 55 is_stmt 0 discriminator 3 view .LVU328
 1167 0066 BDF80630 		ldrh	r3, [sp, #6]
 842:X-CUBE-AI/App/network.c ****     AI_BUFFER_ARRAY_ITEM_SET_ADDRESS(&params.map_weights, idx, weights[idx]);
 1168              		.loc 1 842 30 discriminator 3 view .LVU329
 1169 006a A342     		cmp	r3, r4
 1170 006c F2D8     		bhi	.L61
 1171              	.L60:
 1172              	.LBE6:
 846:X-CUBE-AI/App/network.c ****     err = ai_network_get_error(*network);
 1173              		.loc 1 846 3 is_stmt 1 view .LVU330
 846:X-CUBE-AI/App/network.c ****     err = ai_network_get_error(*network);
 1174              		.loc 1 846 7 is_stmt 0 view .LVU331
 1175 006e 6946     		mov	r1, sp
 1176 0070 D8F80000 		ldr	r0, [r8]
 1177 0074 FFF7FEFF 		bl	ai_network_init
 1178              	.LVL87:
 846:X-CUBE-AI/App/network.c ****     err = ai_network_get_error(*network);
 1179              		.loc 1 846 6 discriminator 1 view .LVU332
 1180 0078 18B1     		cbz	r0, .L67
 1181              	.L62:
 849:X-CUBE-AI/App/network.c **** }
 1182              		.loc 1 849 3 is_stmt 1 view .LVU333
 1183              	.LVL88:
 849:X-CUBE-AI/App/network.c **** }
 1184              		.loc 1 849 10 is_stmt 0 view .LVU334
 1185 007a 3846     		mov	r0, r7
 1186 007c CDE7     		b	.L55
 1187              	.LVL89:
 1188              	.L64:
 1189              	.LBB7:
 849:X-CUBE-AI/App/network.c **** }
 1190              		.loc 1 849 10 view .LVU335
 1191 007e 0024     		movs	r4, #0
 1192              	.LVL90:
 849:X-CUBE-AI/App/network.c **** }
 1193              		.loc 1 849 10 view .LVU336
 1194 0080 F0E7     		b	.L59
 1195              	.LVL91:
 1196              	.L67:
 849:X-CUBE-AI/App/network.c **** }
 1197              		.loc 1 849 10 view .LVU337
 1198              	.LBE7:
 847:X-CUBE-AI/App/network.c ****   }
 1199              		.loc 1 847 5 is_stmt 1 view .LVU338
 847:X-CUBE-AI/App/network.c ****   }
 1200              		.loc 1 847 11 is_stmt 0 view .LVU339
 1201 0082 D8F80000 		ldr	r0, [r8]
 1202 0086 FFF7FEFF 		bl	ai_network_get_error
 1203              	.LVL92:
ARM GAS  /tmp/ccAaiSfb.s 			page 40


 1204 008a 0746     		mov	r7, r0
 847:X-CUBE-AI/App/network.c ****   }
 1205              		.loc 1 847 11 view .LVU340
 1206 008c F5E7     		b	.L62
 1207              		.cfi_endproc
 1208              	.LFE10:
 1210              		.section	.text.ai_network_run,"ax",%progbits
 1211              		.align	1
 1212              		.global	ai_network_run
 1213              		.syntax unified
 1214              		.thumb
 1215              		.thumb_func
 1217              	ai_network_run:
 1218              	.LVL93:
 1219              	.LFB15:
 897:X-CUBE-AI/App/network.c **** 
 898:X-CUBE-AI/App/network.c **** 
 899:X-CUBE-AI/App/network.c **** AI_API_ENTRY
 900:X-CUBE-AI/App/network.c **** ai_i32 ai_network_run(
 901:X-CUBE-AI/App/network.c ****   ai_handle network, const ai_buffer* input, ai_buffer* output)
 902:X-CUBE-AI/App/network.c **** {
 1220              		.loc 1 902 1 is_stmt 1 view -0
 1221              		.cfi_startproc
 1222              		@ args = 0, pretend = 0, frame = 0
 1223              		@ frame_needed = 0, uses_anonymous_args = 0
 1224              		.loc 1 902 1 is_stmt 0 view .LVU342
 1225 0000 08B5     		push	{r3, lr}
 1226              	.LCFI20:
 1227              		.cfi_def_cfa_offset 8
 1228              		.cfi_offset 3, -8
 1229              		.cfi_offset 14, -4
 903:X-CUBE-AI/App/network.c ****   return ai_platform_network_process(network, input, output);
 1230              		.loc 1 903 3 is_stmt 1 view .LVU343
 1231              		.loc 1 903 10 is_stmt 0 view .LVU344
 1232 0002 FFF7FEFF 		bl	ai_platform_network_process
 1233              	.LVL94:
 904:X-CUBE-AI/App/network.c **** }
 1234              		.loc 1 904 1 view .LVU345
 1235 0006 08BD     		pop	{r3, pc}
 1236              		.cfi_endproc
 1237              	.LFE15:
 1239              		.section	.text.ai_network_forward,"ax",%progbits
 1240              		.align	1
 1241              		.global	ai_network_forward
 1242              		.syntax unified
 1243              		.thumb
 1244              		.thumb_func
 1246              	ai_network_forward:
 1247              	.LVL95:
 1248              	.LFB16:
 905:X-CUBE-AI/App/network.c **** 
 906:X-CUBE-AI/App/network.c **** 
 907:X-CUBE-AI/App/network.c **** AI_API_ENTRY
 908:X-CUBE-AI/App/network.c **** ai_i32 ai_network_forward(ai_handle network, const ai_buffer* input)
 909:X-CUBE-AI/App/network.c **** {
 1249              		.loc 1 909 1 is_stmt 1 view -0
 1250              		.cfi_startproc
ARM GAS  /tmp/ccAaiSfb.s 			page 41


 1251              		@ args = 0, pretend = 0, frame = 0
 1252              		@ frame_needed = 0, uses_anonymous_args = 0
 1253              		.loc 1 909 1 is_stmt 0 view .LVU347
 1254 0000 08B5     		push	{r3, lr}
 1255              	.LCFI21:
 1256              		.cfi_def_cfa_offset 8
 1257              		.cfi_offset 3, -8
 1258              		.cfi_offset 14, -4
 910:X-CUBE-AI/App/network.c ****   return ai_platform_network_process(network, input, NULL);
 1259              		.loc 1 910 3 is_stmt 1 view .LVU348
 1260              		.loc 1 910 10 is_stmt 0 view .LVU349
 1261 0002 0022     		movs	r2, #0
 1262 0004 FFF7FEFF 		bl	ai_platform_network_process
 1263              	.LVL96:
 911:X-CUBE-AI/App/network.c **** }
 1264              		.loc 1 911 1 view .LVU350
 1265 0008 08BD     		pop	{r3, pc}
 1266              		.cfi_endproc
 1267              	.LFE16:
 1269              		.section	.data.g_network,"aw"
 1270              		.align	2
 1273              	g_network:
 1274 0000 0001C0A1 		.word	-1581252352
 1275 0004 CA581051 		.word	1360025802
 1276 0008 00000000 		.word	0
 1277 000c 00       		.byte	0
 1278 000d 00       		.byte	0
 1279 000e 00       		.byte	0
 1280 000f 00       		.byte	0
 1281 0010 00000000 		.word	0
 1282 0014 00000000 		.word	0
 1283 0018 0000     		.short	0
 1284 001a 0000     		.short	0
 1285 001c DECAFAA1 		.word	-1577399586
 1286 0020 0000     		.short	0
 1287 0022 0100     		.short	1
 1288 0024 00000000 		.word	__compound_literal.111
 1289 0028 0000     		.short	0
 1290 002a 0100     		.short	1
 1291 002c 00000000 		.word	__compound_literal.113
 1292 0030 0200     		.short	2
 1293 0032 0000     		.short	0
 1294 0034 00000000 		.word	__compound_literal.124
 1295 0038 00000000 		.word	gemm_0_layer
 1296 003c 00000000 		.word	0
 1297 0040 00000000 		.word	0
 1298 0044 00000000 		.word	0
 1299 0048 00000000 		.word	0
 1300              		.section	.data.__compound_literal.124,"aw"
 1301              		.align	2
 1304              	__compound_literal.124:
 1305 0000 0100     		.short	1
 1306 0002 0000     		.short	0
 1307 0004 00000000 		.word	__compound_literal.114
 1308 0008 00000000 		.word	__compound_literal.118
 1309 000c 0100     		.short	1
 1310 000e 0000     		.short	0
ARM GAS  /tmp/ccAaiSfb.s 			page 42


 1311 0010 00000000 		.word	__compound_literal.119
 1312 0014 00000000 		.word	__compound_literal.123
 1313              		.section	.data.__compound_literal.123,"aw"
 1314              		.align	2
 1317              	__compound_literal.123:
 1318 0000 00000000 		.word	__compound_literal.121
 1319 0004 00000000 		.word	__compound_literal.120
 1320 0008 00000000 		.word	__compound_literal.122
 1321              		.section	.bss.__compound_literal.122,"aw",%nobits
 1322              		.align	2
 1325              	__compound_literal.122:
 1326 0000 00000000 		.space	8
 1326      00000000 
 1327              		.section	.bss.__compound_literal.121,"aw",%nobits
 1328              		.align	2
 1331              	__compound_literal.121:
 1332 0000 00000000 		.space	16
 1332      00000000 
 1332      00000000 
 1332      00000000 
 1333              		.section	.bss.__compound_literal.120,"aw",%nobits
 1334              		.align	2
 1337              	__compound_literal.120:
 1338 0000 00000000 		.space	28
 1338      00000000 
 1338      00000000 
 1338      00000000 
 1338      00000000 
 1339              		.section	.data.__compound_literal.119,"aw"
 1340              		.align	2
 1343              	__compound_literal.119:
 1344 0000 00000000 		.word	nl_6_output
 1345              		.section	.data.__compound_literal.118,"aw"
 1346              		.align	2
 1349              	__compound_literal.118:
 1350 0000 00000000 		.word	__compound_literal.116
 1351 0004 00000000 		.word	__compound_literal.115
 1352 0008 00000000 		.word	__compound_literal.117
 1353              		.section	.bss.__compound_literal.117,"aw",%nobits
 1354              		.align	2
 1357              	__compound_literal.117:
 1358 0000 00000000 		.space	8
 1358      00000000 
 1359              		.section	.bss.__compound_literal.116,"aw",%nobits
 1360              		.align	2
 1363              	__compound_literal.116:
 1364 0000 00000000 		.space	16
 1364      00000000 
 1364      00000000 
 1364      00000000 
 1365              		.section	.bss.__compound_literal.115,"aw",%nobits
 1366              		.align	2
 1369              	__compound_literal.115:
 1370 0000 00000000 		.space	28
 1370      00000000 
 1370      00000000 
 1370      00000000 
ARM GAS  /tmp/ccAaiSfb.s 			page 43


 1370      00000000 
 1371              		.section	.data.__compound_literal.114,"aw"
 1372              		.align	2
 1375              	__compound_literal.114:
 1376 0000 00000000 		.word	serving_default_keras_tensor_1030_output
 1377              		.section	.data.__compound_literal.113,"aw"
 1378              		.align	2
 1381              	__compound_literal.113:
 1382 0000 40040400 		.word	263232
 1383 0004 00000000 		.word	0
 1384 0008 00000000 		.word	0
 1385 000c 00000000 		.word	0
 1386 0010 00070000 		.word	1792
 1387 0014 01       		.byte	1
 1388 0015 04       		.byte	4
 1389 0016 00       		.byte	0
 1390 0017 00       		.byte	0
 1391 0018 00000000 		.word	__compound_literal.112
 1392              		.section	.data.__compound_literal.112,"aw"
 1393              		.align	2
 1396              	__compound_literal.112:
 1397 0000 01000000 		.word	1
 1398 0004 00070000 		.word	1792
 1399 0008 01000000 		.word	1
 1400 000c 01000000 		.word	1
 1401              		.section	.data.__compound_literal.111,"aw"
 1402              		.align	2
 1405              	__compound_literal.111:
 1406 0000 40040400 		.word	263232
 1407 0004 00000000 		.word	0
 1408 0008 00000000 		.word	0
 1409 000c 00000000 		.word	0
 1410 0010 B4E00500 		.word	385204
 1411 0014 01       		.byte	1
 1412 0015 04       		.byte	4
 1413 0016 00       		.byte	0
 1414 0017 00       		.byte	0
 1415 0018 00000000 		.word	__compound_literal.110
 1416              		.section	.data.__compound_literal.110,"aw"
 1417              		.align	2
 1420              	__compound_literal.110:
 1421 0000 01000000 		.word	1
 1422 0004 B4E00500 		.word	385204
 1423 0008 01000000 		.word	1
 1424 000c 01000000 		.word	1
 1425              		.section	.data.gemm_0_layer,"aw"
 1426              		.align	2
 1429              	gemm_0_layer:
 1430 0000 0401     		.short	260
 1431 0002 0000     		.short	0
 1432 0004 00000000 		.word	0
 1433 0008 00000000 		.word	0
 1434 000c 00000000 		.word	0
 1435 0010 00000000 		.word	nl_0_nl_layer
 1436 0014 00000000 		.word	forward_dense
 1437 0018 00000000 		.word	gemm_0_chain
 1438              		.section	.rodata.gemm_0_chain,"a"
ARM GAS  /tmp/ccAaiSfb.s 			page 44


 1439              		.align	2
 1442              	gemm_0_chain:
 1443 0000 0400     		.short	4
 1444 0002 0000     		.short	0
 1445 0004 00000000 		.word	__compound_literal.109
 1446              		.section	.data.__compound_literal.109,"aw"
 1447              		.align	2
 1450              	__compound_literal.109:
 1451 0000 0100     		.short	1
 1452 0002 0000     		.short	0
 1453 0004 00000000 		.word	__compound_literal.105
 1454 0008 00000000 		.word	0
 1455 000c 0100     		.short	1
 1456 000e 0000     		.short	0
 1457 0010 00000000 		.word	__compound_literal.106
 1458 0014 00000000 		.word	0
 1459 0018 0200     		.short	2
 1460 001a 0000     		.short	0
 1461 001c 00000000 		.word	__compound_literal.107
 1462 0020 00000000 		.word	0
 1463 0024 0000     		.short	0
 1464 0026 0000     		.short	0
 1465 0028 00000000 		.word	__compound_literal.108
 1466 002c 00000000 		.word	0
 1467              		.section	.bss.__compound_literal.108,"aw",%nobits
 1468              		.align	2
 1471              	__compound_literal.108:
 1472 0000 00000000 		.space	4
 1473              		.section	.data.__compound_literal.107,"aw"
 1474              		.align	2
 1477              	__compound_literal.107:
 1478 0000 00000000 		.word	gemm_0_weights
 1479 0004 00000000 		.word	gemm_0_bias
 1480              		.section	.data.__compound_literal.106,"aw"
 1481              		.align	2
 1484              	__compound_literal.106:
 1485 0000 00000000 		.word	gemm_0_output
 1486              		.section	.data.__compound_literal.105,"aw"
 1487              		.align	2
 1490              	__compound_literal.105:
 1491 0000 00000000 		.word	serving_default_keras_tensor_1030_output
 1492              		.section	.data.nl_0_nl_layer,"aw"
 1493              		.align	2
 1496              	nl_0_nl_layer:
 1497 0000 0701     		.short	263
 1498 0002 0000     		.short	0
 1499 0004 00000000 		.word	0
 1500 0008 00000000 		.word	0
 1501 000c 00000000 		.word	0
 1502 0010 00000000 		.word	gemm_1_layer
 1503 0014 00000000 		.word	forward_relu
 1504 0018 00000000 		.word	nl_0_nl_chain
 1505 001c 00000000 		.word	0
 1506              		.section	.rodata.nl_0_nl_chain,"a"
 1507              		.align	2
 1510              	nl_0_nl_chain:
 1511 0000 0400     		.short	4
ARM GAS  /tmp/ccAaiSfb.s 			page 45


 1512 0002 0000     		.short	0
 1513 0004 00000000 		.word	__compound_literal.104
 1514              		.section	.data.__compound_literal.104,"aw"
 1515              		.align	2
 1518              	__compound_literal.104:
 1519 0000 0100     		.short	1
 1520 0002 0000     		.short	0
 1521 0004 00000000 		.word	__compound_literal.100
 1522 0008 00000000 		.word	0
 1523 000c 0100     		.short	1
 1524 000e 0000     		.short	0
 1525 0010 00000000 		.word	__compound_literal.101
 1526 0014 00000000 		.word	0
 1527 0018 0000     		.short	0
 1528 001a 0000     		.short	0
 1529 001c 00000000 		.word	__compound_literal.102
 1530 0020 00000000 		.word	0
 1531 0024 0000     		.short	0
 1532 0026 0000     		.short	0
 1533 0028 00000000 		.word	__compound_literal.103
 1534 002c 00000000 		.word	0
 1535              		.section	.bss.__compound_literal.103,"aw",%nobits
 1536              		.align	2
 1539              	__compound_literal.103:
 1540 0000 00000000 		.space	4
 1541              		.section	.bss.__compound_literal.102,"aw",%nobits
 1542              		.align	2
 1545              	__compound_literal.102:
 1546 0000 00000000 		.space	4
 1547              		.section	.data.__compound_literal.101,"aw"
 1548              		.align	2
 1551              	__compound_literal.101:
 1552 0000 00000000 		.word	nl_0_nl_output
 1553              		.section	.data.__compound_literal.100,"aw"
 1554              		.align	2
 1557              	__compound_literal.100:
 1558 0000 00000000 		.word	gemm_0_output
 1559              		.section	.data.gemm_1_layer,"aw"
 1560              		.align	2
 1563              	gemm_1_layer:
 1564 0000 0401     		.short	260
 1565 0002 0100     		.short	1
 1566 0004 00000000 		.word	0
 1567 0008 00000000 		.word	0
 1568 000c 00000000 		.word	0
 1569 0010 00000000 		.word	nl_1_nl_layer
 1570 0014 00000000 		.word	forward_dense
 1571 0018 00000000 		.word	gemm_1_chain
 1572              		.section	.rodata.gemm_1_chain,"a"
 1573              		.align	2
 1576              	gemm_1_chain:
 1577 0000 0400     		.short	4
 1578 0002 0000     		.short	0
 1579 0004 00000000 		.word	__compound_literal.99
 1580              		.section	.data.__compound_literal.99,"aw"
 1581              		.align	2
 1584              	__compound_literal.99:
ARM GAS  /tmp/ccAaiSfb.s 			page 46


 1585 0000 0100     		.short	1
 1586 0002 0000     		.short	0
 1587 0004 00000000 		.word	__compound_literal.95
 1588 0008 00000000 		.word	0
 1589 000c 0100     		.short	1
 1590 000e 0000     		.short	0
 1591 0010 00000000 		.word	__compound_literal.96
 1592 0014 00000000 		.word	0
 1593 0018 0200     		.short	2
 1594 001a 0000     		.short	0
 1595 001c 00000000 		.word	__compound_literal.97
 1596 0020 00000000 		.word	0
 1597 0024 0000     		.short	0
 1598 0026 0000     		.short	0
 1599 0028 00000000 		.word	__compound_literal.98
 1600 002c 00000000 		.word	0
 1601              		.section	.bss.__compound_literal.98,"aw",%nobits
 1602              		.align	2
 1605              	__compound_literal.98:
 1606 0000 00000000 		.space	4
 1607              		.section	.data.__compound_literal.97,"aw"
 1608              		.align	2
 1611              	__compound_literal.97:
 1612 0000 00000000 		.word	gemm_1_weights
 1613 0004 00000000 		.word	gemm_1_bias
 1614              		.section	.data.__compound_literal.96,"aw"
 1615              		.align	2
 1618              	__compound_literal.96:
 1619 0000 00000000 		.word	gemm_1_output
 1620              		.section	.data.__compound_literal.95,"aw"
 1621              		.align	2
 1624              	__compound_literal.95:
 1625 0000 00000000 		.word	nl_0_nl_output
 1626              		.section	.data.nl_1_nl_layer,"aw"
 1627              		.align	2
 1630              	nl_1_nl_layer:
 1631 0000 0701     		.short	263
 1632 0002 0100     		.short	1
 1633 0004 00000000 		.word	0
 1634 0008 00000000 		.word	0
 1635 000c 00000000 		.word	0
 1636 0010 00000000 		.word	gemm_2_layer
 1637 0014 00000000 		.word	forward_relu
 1638 0018 00000000 		.word	nl_1_nl_chain
 1639 001c 00000000 		.word	0
 1640              		.section	.rodata.nl_1_nl_chain,"a"
 1641              		.align	2
 1644              	nl_1_nl_chain:
 1645 0000 0400     		.short	4
 1646 0002 0000     		.short	0
 1647 0004 00000000 		.word	__compound_literal.94
 1648              		.section	.data.__compound_literal.94,"aw"
 1649              		.align	2
 1652              	__compound_literal.94:
 1653 0000 0100     		.short	1
 1654 0002 0000     		.short	0
 1655 0004 00000000 		.word	__compound_literal.90
ARM GAS  /tmp/ccAaiSfb.s 			page 47


 1656 0008 00000000 		.word	0
 1657 000c 0100     		.short	1
 1658 000e 0000     		.short	0
 1659 0010 00000000 		.word	__compound_literal.91
 1660 0014 00000000 		.word	0
 1661 0018 0000     		.short	0
 1662 001a 0000     		.short	0
 1663 001c 00000000 		.word	__compound_literal.92
 1664 0020 00000000 		.word	0
 1665 0024 0000     		.short	0
 1666 0026 0000     		.short	0
 1667 0028 00000000 		.word	__compound_literal.93
 1668 002c 00000000 		.word	0
 1669              		.section	.bss.__compound_literal.93,"aw",%nobits
 1670              		.align	2
 1673              	__compound_literal.93:
 1674 0000 00000000 		.space	4
 1675              		.section	.bss.__compound_literal.92,"aw",%nobits
 1676              		.align	2
 1679              	__compound_literal.92:
 1680 0000 00000000 		.space	4
 1681              		.section	.data.__compound_literal.91,"aw"
 1682              		.align	2
 1685              	__compound_literal.91:
 1686 0000 00000000 		.word	nl_1_nl_output
 1687              		.section	.data.__compound_literal.90,"aw"
 1688              		.align	2
 1691              	__compound_literal.90:
 1692 0000 00000000 		.word	gemm_1_output
 1693              		.section	.data.gemm_2_layer,"aw"
 1694              		.align	2
 1697              	gemm_2_layer:
 1698 0000 0401     		.short	260
 1699 0002 0200     		.short	2
 1700 0004 00000000 		.word	0
 1701 0008 00000000 		.word	0
 1702 000c 00000000 		.word	0
 1703 0010 00000000 		.word	nl_2_nl_layer
 1704 0014 00000000 		.word	forward_dense
 1705 0018 00000000 		.word	gemm_2_chain
 1706              		.section	.rodata.gemm_2_chain,"a"
 1707              		.align	2
 1710              	gemm_2_chain:
 1711 0000 0400     		.short	4
 1712 0002 0000     		.short	0
 1713 0004 00000000 		.word	__compound_literal.89
 1714              		.section	.data.__compound_literal.89,"aw"
 1715              		.align	2
 1718              	__compound_literal.89:
 1719 0000 0100     		.short	1
 1720 0002 0000     		.short	0
 1721 0004 00000000 		.word	__compound_literal.85
 1722 0008 00000000 		.word	0
 1723 000c 0100     		.short	1
 1724 000e 0000     		.short	0
 1725 0010 00000000 		.word	__compound_literal.86
 1726 0014 00000000 		.word	0
ARM GAS  /tmp/ccAaiSfb.s 			page 48


 1727 0018 0200     		.short	2
 1728 001a 0000     		.short	0
 1729 001c 00000000 		.word	__compound_literal.87
 1730 0020 00000000 		.word	0
 1731 0024 0000     		.short	0
 1732 0026 0000     		.short	0
 1733 0028 00000000 		.word	__compound_literal.88
 1734 002c 00000000 		.word	0
 1735              		.section	.bss.__compound_literal.88,"aw",%nobits
 1736              		.align	2
 1739              	__compound_literal.88:
 1740 0000 00000000 		.space	4
 1741              		.section	.data.__compound_literal.87,"aw"
 1742              		.align	2
 1745              	__compound_literal.87:
 1746 0000 00000000 		.word	gemm_2_weights
 1747 0004 00000000 		.word	gemm_2_bias
 1748              		.section	.data.__compound_literal.86,"aw"
 1749              		.align	2
 1752              	__compound_literal.86:
 1753 0000 00000000 		.word	gemm_2_output
 1754              		.section	.data.__compound_literal.85,"aw"
 1755              		.align	2
 1758              	__compound_literal.85:
 1759 0000 00000000 		.word	nl_1_nl_output
 1760              		.section	.data.nl_2_nl_layer,"aw"
 1761              		.align	2
 1764              	nl_2_nl_layer:
 1765 0000 0701     		.short	263
 1766 0002 0200     		.short	2
 1767 0004 00000000 		.word	0
 1768 0008 00000000 		.word	0
 1769 000c 00000000 		.word	0
 1770 0010 00000000 		.word	gemm_3_layer
 1771 0014 00000000 		.word	forward_relu
 1772 0018 00000000 		.word	nl_2_nl_chain
 1773 001c 00000000 		.word	0
 1774              		.section	.rodata.nl_2_nl_chain,"a"
 1775              		.align	2
 1778              	nl_2_nl_chain:
 1779 0000 0400     		.short	4
 1780 0002 0000     		.short	0
 1781 0004 00000000 		.word	__compound_literal.84
 1782              		.section	.data.__compound_literal.84,"aw"
 1783              		.align	2
 1786              	__compound_literal.84:
 1787 0000 0100     		.short	1
 1788 0002 0000     		.short	0
 1789 0004 00000000 		.word	__compound_literal.80
 1790 0008 00000000 		.word	0
 1791 000c 0100     		.short	1
 1792 000e 0000     		.short	0
 1793 0010 00000000 		.word	__compound_literal.81
 1794 0014 00000000 		.word	0
 1795 0018 0000     		.short	0
 1796 001a 0000     		.short	0
 1797 001c 00000000 		.word	__compound_literal.82
ARM GAS  /tmp/ccAaiSfb.s 			page 49


 1798 0020 00000000 		.word	0
 1799 0024 0000     		.short	0
 1800 0026 0000     		.short	0
 1801 0028 00000000 		.word	__compound_literal.83
 1802 002c 00000000 		.word	0
 1803              		.section	.bss.__compound_literal.83,"aw",%nobits
 1804              		.align	2
 1807              	__compound_literal.83:
 1808 0000 00000000 		.space	4
 1809              		.section	.bss.__compound_literal.82,"aw",%nobits
 1810              		.align	2
 1813              	__compound_literal.82:
 1814 0000 00000000 		.space	4
 1815              		.section	.data.__compound_literal.81,"aw"
 1816              		.align	2
 1819              	__compound_literal.81:
 1820 0000 00000000 		.word	nl_2_nl_output
 1821              		.section	.data.__compound_literal.80,"aw"
 1822              		.align	2
 1825              	__compound_literal.80:
 1826 0000 00000000 		.word	gemm_2_output
 1827              		.section	.data.gemm_3_layer,"aw"
 1828              		.align	2
 1831              	gemm_3_layer:
 1832 0000 0401     		.short	260
 1833 0002 0300     		.short	3
 1834 0004 00000000 		.word	0
 1835 0008 00000000 		.word	0
 1836 000c 00000000 		.word	0
 1837 0010 00000000 		.word	nl_3_nl_layer
 1838 0014 00000000 		.word	forward_dense
 1839 0018 00000000 		.word	gemm_3_chain
 1840              		.section	.rodata.gemm_3_chain,"a"
 1841              		.align	2
 1844              	gemm_3_chain:
 1845 0000 0400     		.short	4
 1846 0002 0000     		.short	0
 1847 0004 00000000 		.word	__compound_literal.79
 1848              		.section	.data.__compound_literal.79,"aw"
 1849              		.align	2
 1852              	__compound_literal.79:
 1853 0000 0100     		.short	1
 1854 0002 0000     		.short	0
 1855 0004 00000000 		.word	__compound_literal.75
 1856 0008 00000000 		.word	0
 1857 000c 0100     		.short	1
 1858 000e 0000     		.short	0
 1859 0010 00000000 		.word	__compound_literal.76
 1860 0014 00000000 		.word	0
 1861 0018 0200     		.short	2
 1862 001a 0000     		.short	0
 1863 001c 00000000 		.word	__compound_literal.77
 1864 0020 00000000 		.word	0
 1865 0024 0000     		.short	0
 1866 0026 0000     		.short	0
 1867 0028 00000000 		.word	__compound_literal.78
 1868 002c 00000000 		.word	0
ARM GAS  /tmp/ccAaiSfb.s 			page 50


 1869              		.section	.bss.__compound_literal.78,"aw",%nobits
 1870              		.align	2
 1873              	__compound_literal.78:
 1874 0000 00000000 		.space	4
 1875              		.section	.data.__compound_literal.77,"aw"
 1876              		.align	2
 1879              	__compound_literal.77:
 1880 0000 00000000 		.word	gemm_3_weights
 1881 0004 00000000 		.word	gemm_3_bias
 1882              		.section	.data.__compound_literal.76,"aw"
 1883              		.align	2
 1886              	__compound_literal.76:
 1887 0000 00000000 		.word	gemm_3_output
 1888              		.section	.data.__compound_literal.75,"aw"
 1889              		.align	2
 1892              	__compound_literal.75:
 1893 0000 00000000 		.word	nl_2_nl_output
 1894              		.section	.data.nl_3_nl_layer,"aw"
 1895              		.align	2
 1898              	nl_3_nl_layer:
 1899 0000 0701     		.short	263
 1900 0002 0300     		.short	3
 1901 0004 00000000 		.word	0
 1902 0008 00000000 		.word	0
 1903 000c 00000000 		.word	0
 1904 0010 00000000 		.word	gemm_4_layer
 1905 0014 00000000 		.word	forward_relu
 1906 0018 00000000 		.word	nl_3_nl_chain
 1907 001c 00000000 		.word	0
 1908              		.section	.rodata.nl_3_nl_chain,"a"
 1909              		.align	2
 1912              	nl_3_nl_chain:
 1913 0000 0400     		.short	4
 1914 0002 0000     		.short	0
 1915 0004 00000000 		.word	__compound_literal.74
 1916              		.section	.data.__compound_literal.74,"aw"
 1917              		.align	2
 1920              	__compound_literal.74:
 1921 0000 0100     		.short	1
 1922 0002 0000     		.short	0
 1923 0004 00000000 		.word	__compound_literal.70
 1924 0008 00000000 		.word	0
 1925 000c 0100     		.short	1
 1926 000e 0000     		.short	0
 1927 0010 00000000 		.word	__compound_literal.71
 1928 0014 00000000 		.word	0
 1929 0018 0000     		.short	0
 1930 001a 0000     		.short	0
 1931 001c 00000000 		.word	__compound_literal.72
 1932 0020 00000000 		.word	0
 1933 0024 0000     		.short	0
 1934 0026 0000     		.short	0
 1935 0028 00000000 		.word	__compound_literal.73
 1936 002c 00000000 		.word	0
 1937              		.section	.bss.__compound_literal.73,"aw",%nobits
 1938              		.align	2
 1941              	__compound_literal.73:
ARM GAS  /tmp/ccAaiSfb.s 			page 51


 1942 0000 00000000 		.space	4
 1943              		.section	.bss.__compound_literal.72,"aw",%nobits
 1944              		.align	2
 1947              	__compound_literal.72:
 1948 0000 00000000 		.space	4
 1949              		.section	.data.__compound_literal.71,"aw"
 1950              		.align	2
 1953              	__compound_literal.71:
 1954 0000 00000000 		.word	nl_3_nl_output
 1955              		.section	.data.__compound_literal.70,"aw"
 1956              		.align	2
 1959              	__compound_literal.70:
 1960 0000 00000000 		.word	gemm_3_output
 1961              		.section	.data.gemm_4_layer,"aw"
 1962              		.align	2
 1965              	gemm_4_layer:
 1966 0000 0401     		.short	260
 1967 0002 0400     		.short	4
 1968 0004 00000000 		.word	0
 1969 0008 00000000 		.word	0
 1970 000c 00000000 		.word	0
 1971 0010 00000000 		.word	nl_4_nl_layer
 1972 0014 00000000 		.word	forward_dense
 1973 0018 00000000 		.word	gemm_4_chain
 1974              		.section	.rodata.gemm_4_chain,"a"
 1975              		.align	2
 1978              	gemm_4_chain:
 1979 0000 0400     		.short	4
 1980 0002 0000     		.short	0
 1981 0004 00000000 		.word	__compound_literal.69
 1982              		.section	.data.__compound_literal.69,"aw"
 1983              		.align	2
 1986              	__compound_literal.69:
 1987 0000 0100     		.short	1
 1988 0002 0000     		.short	0
 1989 0004 00000000 		.word	__compound_literal.65
 1990 0008 00000000 		.word	0
 1991 000c 0100     		.short	1
 1992 000e 0000     		.short	0
 1993 0010 00000000 		.word	__compound_literal.66
 1994 0014 00000000 		.word	0
 1995 0018 0200     		.short	2
 1996 001a 0000     		.short	0
 1997 001c 00000000 		.word	__compound_literal.67
 1998 0020 00000000 		.word	0
 1999 0024 0000     		.short	0
 2000 0026 0000     		.short	0
 2001 0028 00000000 		.word	__compound_literal.68
 2002 002c 00000000 		.word	0
 2003              		.section	.bss.__compound_literal.68,"aw",%nobits
 2004              		.align	2
 2007              	__compound_literal.68:
 2008 0000 00000000 		.space	4
 2009              		.section	.data.__compound_literal.67,"aw"
 2010              		.align	2
 2013              	__compound_literal.67:
 2014 0000 00000000 		.word	gemm_4_weights
ARM GAS  /tmp/ccAaiSfb.s 			page 52


 2015 0004 00000000 		.word	gemm_4_bias
 2016              		.section	.data.__compound_literal.66,"aw"
 2017              		.align	2
 2020              	__compound_literal.66:
 2021 0000 00000000 		.word	gemm_4_output
 2022              		.section	.data.__compound_literal.65,"aw"
 2023              		.align	2
 2026              	__compound_literal.65:
 2027 0000 00000000 		.word	nl_3_nl_output
 2028              		.section	.data.nl_4_nl_layer,"aw"
 2029              		.align	2
 2032              	nl_4_nl_layer:
 2033 0000 0701     		.short	263
 2034 0002 0400     		.short	4
 2035 0004 00000000 		.word	0
 2036 0008 00000000 		.word	0
 2037 000c 00000000 		.word	0
 2038 0010 00000000 		.word	gemm_5_layer
 2039 0014 00000000 		.word	forward_relu
 2040 0018 00000000 		.word	nl_4_nl_chain
 2041 001c 00000000 		.word	0
 2042              		.section	.rodata.nl_4_nl_chain,"a"
 2043              		.align	2
 2046              	nl_4_nl_chain:
 2047 0000 0400     		.short	4
 2048 0002 0000     		.short	0
 2049 0004 00000000 		.word	__compound_literal.64
 2050              		.section	.data.__compound_literal.64,"aw"
 2051              		.align	2
 2054              	__compound_literal.64:
 2055 0000 0100     		.short	1
 2056 0002 0000     		.short	0
 2057 0004 00000000 		.word	__compound_literal.60
 2058 0008 00000000 		.word	0
 2059 000c 0100     		.short	1
 2060 000e 0000     		.short	0
 2061 0010 00000000 		.word	__compound_literal.61
 2062 0014 00000000 		.word	0
 2063 0018 0000     		.short	0
 2064 001a 0000     		.short	0
 2065 001c 00000000 		.word	__compound_literal.62
 2066 0020 00000000 		.word	0
 2067 0024 0000     		.short	0
 2068 0026 0000     		.short	0
 2069 0028 00000000 		.word	__compound_literal.63
 2070 002c 00000000 		.word	0
 2071              		.section	.bss.__compound_literal.63,"aw",%nobits
 2072              		.align	2
 2075              	__compound_literal.63:
 2076 0000 00000000 		.space	4
 2077              		.section	.bss.__compound_literal.62,"aw",%nobits
 2078              		.align	2
 2081              	__compound_literal.62:
 2082 0000 00000000 		.space	4
 2083              		.section	.data.__compound_literal.61,"aw"
 2084              		.align	2
 2087              	__compound_literal.61:
ARM GAS  /tmp/ccAaiSfb.s 			page 53


 2088 0000 00000000 		.word	nl_4_nl_output
 2089              		.section	.data.__compound_literal.60,"aw"
 2090              		.align	2
 2093              	__compound_literal.60:
 2094 0000 00000000 		.word	gemm_4_output
 2095              		.section	.data.gemm_5_layer,"aw"
 2096              		.align	2
 2099              	gemm_5_layer:
 2100 0000 0401     		.short	260
 2101 0002 0500     		.short	5
 2102 0004 00000000 		.word	0
 2103 0008 00000000 		.word	0
 2104 000c 00000000 		.word	0
 2105 0010 00000000 		.word	nl_6_layer
 2106 0014 00000000 		.word	forward_dense
 2107 0018 00000000 		.word	gemm_5_chain
 2108              		.section	.rodata.gemm_5_chain,"a"
 2109              		.align	2
 2112              	gemm_5_chain:
 2113 0000 0400     		.short	4
 2114 0002 0000     		.short	0
 2115 0004 00000000 		.word	__compound_literal.59
 2116              		.section	.data.__compound_literal.59,"aw"
 2117              		.align	2
 2120              	__compound_literal.59:
 2121 0000 0100     		.short	1
 2122 0002 0000     		.short	0
 2123 0004 00000000 		.word	__compound_literal.55
 2124 0008 00000000 		.word	0
 2125 000c 0100     		.short	1
 2126 000e 0000     		.short	0
 2127 0010 00000000 		.word	__compound_literal.56
 2128 0014 00000000 		.word	0
 2129 0018 0200     		.short	2
 2130 001a 0000     		.short	0
 2131 001c 00000000 		.word	__compound_literal.57
 2132 0020 00000000 		.word	0
 2133 0024 0000     		.short	0
 2134 0026 0000     		.short	0
 2135 0028 00000000 		.word	__compound_literal.58
 2136 002c 00000000 		.word	0
 2137              		.section	.bss.__compound_literal.58,"aw",%nobits
 2138              		.align	2
 2141              	__compound_literal.58:
 2142 0000 00000000 		.space	4
 2143              		.section	.data.__compound_literal.57,"aw"
 2144              		.align	2
 2147              	__compound_literal.57:
 2148 0000 00000000 		.word	gemm_5_weights
 2149 0004 00000000 		.word	gemm_5_bias
 2150              		.section	.data.__compound_literal.56,"aw"
 2151              		.align	2
 2154              	__compound_literal.56:
 2155 0000 00000000 		.word	gemm_5_output
 2156              		.section	.data.__compound_literal.55,"aw"
 2157              		.align	2
 2160              	__compound_literal.55:
ARM GAS  /tmp/ccAaiSfb.s 			page 54


 2161 0000 00000000 		.word	nl_4_nl_output
 2162              		.section	.data.nl_6_layer,"aw"
 2163              		.align	2
 2166              	nl_6_layer:
 2167 0000 0C01     		.short	268
 2168 0002 0600     		.short	6
 2169 0004 00000000 		.word	0
 2170 0008 00000000 		.word	0
 2171 000c 00000000 		.word	0
 2172 0010 00000000 		.word	nl_6_layer
 2173 0014 00000000 		.word	forward_sm
 2174 0018 00000000 		.word	nl_6_chain
 2175 001c 00000000 		.word	0
 2176 0020 0100     		.short	1
 2177 0022 0000     		.space	2
 2178              		.section	.rodata.nl_6_chain,"a"
 2179              		.align	2
 2182              	nl_6_chain:
 2183 0000 0400     		.short	4
 2184 0002 0000     		.short	0
 2185 0004 00000000 		.word	__compound_literal.54
 2186              		.section	.data.__compound_literal.54,"aw"
 2187              		.align	2
 2190              	__compound_literal.54:
 2191 0000 0100     		.short	1
 2192 0002 0000     		.short	0
 2193 0004 00000000 		.word	__compound_literal.50
 2194 0008 00000000 		.word	0
 2195 000c 0100     		.short	1
 2196 000e 0000     		.short	0
 2197 0010 00000000 		.word	__compound_literal.51
 2198 0014 00000000 		.word	0
 2199 0018 0000     		.short	0
 2200 001a 0000     		.short	0
 2201 001c 00000000 		.word	__compound_literal.52
 2202 0020 00000000 		.word	0
 2203 0024 0000     		.short	0
 2204 0026 0000     		.short	0
 2205 0028 00000000 		.word	__compound_literal.53
 2206 002c 00000000 		.word	0
 2207              		.section	.bss.__compound_literal.53,"aw",%nobits
 2208              		.align	2
 2211              	__compound_literal.53:
 2212 0000 00000000 		.space	4
 2213              		.section	.bss.__compound_literal.52,"aw",%nobits
 2214              		.align	2
 2217              	__compound_literal.52:
 2218 0000 00000000 		.space	4
 2219              		.section	.data.__compound_literal.51,"aw"
 2220              		.align	2
 2223              	__compound_literal.51:
 2224 0000 00000000 		.word	nl_6_output
 2225              		.section	.data.__compound_literal.50,"aw"
 2226              		.align	2
 2229              	__compound_literal.50:
 2230 0000 00000000 		.word	gemm_5_output
 2231              		.section	.data.serving_default_keras_tensor_1030_output,"aw"
ARM GAS  /tmp/ccAaiSfb.s 			page 55


 2232              		.align	2
 2235              	serving_default_keras_tensor_1030_output:
 2236 0000 00000000 		.word	0
 2237 0004 1800     		.short	24
 2238 0006 00       		.byte	0
 2239 0007 01       		.byte	1
 2240 0008 01       		.byte	1
 2241 0009 04       		.byte	4
 2242 000a 00       		.byte	0
 2243 000b 00       		.byte	0
 2244 000c 00000000 		.word	__compound_literal.48
 2245 0010 02       		.byte	2
 2246 0011 04       		.byte	4
 2247 0012 00       		.byte	0
 2248 0013 00       		.byte	0
 2249 0014 00000000 		.word	__compound_literal.49
 2250 0018 00000000 		.word	serving_default_keras_tensor_1030_output_array
 2251              		.section	.data.__compound_literal.49,"aw"
 2252              		.align	2
 2255              	__compound_literal.49:
 2256 0000 04000000 		.word	4
 2257 0004 04000000 		.word	4
 2258 0008 28000000 		.word	40
 2259 000c 28000000 		.word	40
 2260              		.section	.data.__compound_literal.48,"aw"
 2261              		.align	2
 2264              	__compound_literal.48:
 2265 0000 01000000 		.word	1
 2266 0004 0A000000 		.word	10
 2267 0008 01000000 		.word	1
 2268 000c 01000000 		.word	1
 2269              		.section	.data.nl_6_output,"aw"
 2270              		.align	2
 2273              	nl_6_output:
 2274 0000 00000000 		.word	0
 2275 0004 1700     		.short	23
 2276 0006 00       		.byte	0
 2277 0007 01       		.byte	1
 2278 0008 01       		.byte	1
 2279 0009 04       		.byte	4
 2280 000a 00       		.byte	0
 2281 000b 00       		.byte	0
 2282 000c 00000000 		.word	__compound_literal.46
 2283 0010 02       		.byte	2
 2284 0011 04       		.byte	4
 2285 0012 00       		.byte	0
 2286 0013 00       		.byte	0
 2287 0014 00000000 		.word	__compound_literal.47
 2288 0018 00000000 		.word	nl_6_output_array
 2289              		.section	.data.__compound_literal.47,"aw"
 2290              		.align	2
 2293              	__compound_literal.47:
 2294 0000 04000000 		.word	4
 2295 0004 04000000 		.word	4
 2296 0008 34000000 		.word	52
 2297 000c 34000000 		.word	52
 2298              		.section	.data.__compound_literal.46,"aw"
ARM GAS  /tmp/ccAaiSfb.s 			page 56


 2299              		.align	2
 2302              	__compound_literal.46:
 2303 0000 01000000 		.word	1
 2304 0004 0D000000 		.word	13
 2305 0008 01000000 		.word	1
 2306 000c 01000000 		.word	1
 2307              		.section	.data.nl_4_nl_output,"aw"
 2308              		.align	2
 2311              	nl_4_nl_output:
 2312 0000 00000000 		.word	0
 2313 0004 1600     		.short	22
 2314 0006 00       		.byte	0
 2315 0007 01       		.byte	1
 2316 0008 01       		.byte	1
 2317 0009 04       		.byte	4
 2318 000a 00       		.byte	0
 2319 000b 00       		.byte	0
 2320 000c 00000000 		.word	__compound_literal.44
 2321 0010 02       		.byte	2
 2322 0011 04       		.byte	4
 2323 0012 00       		.byte	0
 2324 0013 00       		.byte	0
 2325 0014 00000000 		.word	__compound_literal.45
 2326 0018 00000000 		.word	nl_4_nl_output_array
 2327              		.section	.data.__compound_literal.45,"aw"
 2328              		.align	2
 2331              	__compound_literal.45:
 2332 0000 04000000 		.word	4
 2333 0004 04000000 		.word	4
 2334 0008 00010000 		.word	256
 2335 000c 00010000 		.word	256
 2336              		.section	.data.__compound_literal.44,"aw"
 2337              		.align	2
 2340              	__compound_literal.44:
 2341 0000 01000000 		.word	1
 2342 0004 40000000 		.word	64
 2343 0008 01000000 		.word	1
 2344 000c 01000000 		.word	1
 2345              		.section	.data.nl_3_nl_output,"aw"
 2346              		.align	2
 2349              	nl_3_nl_output:
 2350 0000 00000000 		.word	0
 2351 0004 1500     		.short	21
 2352 0006 00       		.byte	0
 2353 0007 01       		.byte	1
 2354 0008 01       		.byte	1
 2355 0009 04       		.byte	4
 2356 000a 00       		.byte	0
 2357 000b 00       		.byte	0
 2358 000c 00000000 		.word	__compound_literal.42
 2359 0010 02       		.byte	2
 2360 0011 04       		.byte	4
 2361 0012 00       		.byte	0
 2362 0013 00       		.byte	0
 2363 0014 00000000 		.word	__compound_literal.43
 2364 0018 00000000 		.word	nl_3_nl_output_array
 2365              		.section	.data.__compound_literal.43,"aw"
ARM GAS  /tmp/ccAaiSfb.s 			page 57


 2366              		.align	2
 2369              	__compound_literal.43:
 2370 0000 04000000 		.word	4
 2371 0004 04000000 		.word	4
 2372 0008 80010000 		.word	384
 2373 000c 80010000 		.word	384
 2374              		.section	.data.__compound_literal.42,"aw"
 2375              		.align	2
 2378              	__compound_literal.42:
 2379 0000 01000000 		.word	1
 2380 0004 60000000 		.word	96
 2381 0008 01000000 		.word	1
 2382 000c 01000000 		.word	1
 2383              		.section	.data.nl_2_nl_output,"aw"
 2384              		.align	2
 2387              	nl_2_nl_output:
 2388 0000 00000000 		.word	0
 2389 0004 1400     		.short	20
 2390 0006 00       		.byte	0
 2391 0007 01       		.byte	1
 2392 0008 01       		.byte	1
 2393 0009 04       		.byte	4
 2394 000a 00       		.byte	0
 2395 000b 00       		.byte	0
 2396 000c 00000000 		.word	__compound_literal.40
 2397 0010 02       		.byte	2
 2398 0011 04       		.byte	4
 2399 0012 00       		.byte	0
 2400 0013 00       		.byte	0
 2401 0014 00000000 		.word	__compound_literal.41
 2402 0018 00000000 		.word	nl_2_nl_output_array
 2403              		.section	.data.__compound_literal.41,"aw"
 2404              		.align	2
 2407              	__compound_literal.41:
 2408 0000 04000000 		.word	4
 2409 0004 04000000 		.word	4
 2410 0008 00020000 		.word	512
 2411 000c 00020000 		.word	512
 2412              		.section	.data.__compound_literal.40,"aw"
 2413              		.align	2
 2416              	__compound_literal.40:
 2417 0000 01000000 		.word	1
 2418 0004 80000000 		.word	128
 2419 0008 01000000 		.word	1
 2420 000c 01000000 		.word	1
 2421              		.section	.data.nl_1_nl_output,"aw"
 2422              		.align	2
 2425              	nl_1_nl_output:
 2426 0000 00000000 		.word	0
 2427 0004 1300     		.short	19
 2428 0006 00       		.byte	0
 2429 0007 01       		.byte	1
 2430 0008 01       		.byte	1
 2431 0009 04       		.byte	4
 2432 000a 00       		.byte	0
 2433 000b 00       		.byte	0
 2434 000c 00000000 		.word	__compound_literal.38
ARM GAS  /tmp/ccAaiSfb.s 			page 58


 2435 0010 02       		.byte	2
 2436 0011 04       		.byte	4
 2437 0012 00       		.byte	0
 2438 0013 00       		.byte	0
 2439 0014 00000000 		.word	__compound_literal.39
 2440 0018 00000000 		.word	nl_1_nl_output_array
 2441              		.section	.data.__compound_literal.39,"aw"
 2442              		.align	2
 2445              	__compound_literal.39:
 2446 0000 04000000 		.word	4
 2447 0004 04000000 		.word	4
 2448 0008 00030000 		.word	768
 2449 000c 00030000 		.word	768
 2450              		.section	.data.__compound_literal.38,"aw"
 2451              		.align	2
 2454              	__compound_literal.38:
 2455 0000 01000000 		.word	1
 2456 0004 C0000000 		.word	192
 2457 0008 01000000 		.word	1
 2458 000c 01000000 		.word	1
 2459              		.section	.data.nl_0_nl_output,"aw"
 2460              		.align	2
 2463              	nl_0_nl_output:
 2464 0000 00000000 		.word	0
 2465 0004 1200     		.short	18
 2466 0006 00       		.byte	0
 2467 0007 01       		.byte	1
 2468 0008 01       		.byte	1
 2469 0009 04       		.byte	4
 2470 000a 00       		.byte	0
 2471 000b 00       		.byte	0
 2472 000c 00000000 		.word	__compound_literal.36
 2473 0010 02       		.byte	2
 2474 0011 04       		.byte	4
 2475 0012 00       		.byte	0
 2476 0013 00       		.byte	0
 2477 0014 00000000 		.word	__compound_literal.37
 2478 0018 00000000 		.word	nl_0_nl_output_array
 2479              		.section	.data.__compound_literal.37,"aw"
 2480              		.align	2
 2483              	__compound_literal.37:
 2484 0000 04000000 		.word	4
 2485 0004 04000000 		.word	4
 2486 0008 00040000 		.word	1024
 2487 000c 00040000 		.word	1024
 2488              		.section	.data.__compound_literal.36,"aw"
 2489              		.align	2
 2492              	__compound_literal.36:
 2493 0000 01000000 		.word	1
 2494 0004 00010000 		.word	256
 2495 0008 01000000 		.word	1
 2496 000c 01000000 		.word	1
 2497              		.section	.data.gemm_5_weights,"aw"
 2498              		.align	2
 2501              	gemm_5_weights:
 2502 0000 00000000 		.word	0
 2503 0004 1100     		.short	17
ARM GAS  /tmp/ccAaiSfb.s 			page 59


 2504 0006 00       		.byte	0
 2505 0007 01       		.byte	1
 2506 0008 01       		.byte	1
 2507 0009 04       		.byte	4
 2508 000a 00       		.byte	0
 2509 000b 00       		.byte	0
 2510 000c 00000000 		.word	__compound_literal.34
 2511 0010 02       		.byte	2
 2512 0011 04       		.byte	4
 2513 0012 00       		.byte	0
 2514 0013 00       		.byte	0
 2515 0014 00000000 		.word	__compound_literal.35
 2516 0018 00000000 		.word	gemm_5_weights_array
 2517              		.section	.data.__compound_literal.35,"aw"
 2518              		.align	2
 2521              	__compound_literal.35:
 2522 0000 04000000 		.word	4
 2523 0004 00010000 		.word	256
 2524 0008 000D0000 		.word	3328
 2525 000c 000D0000 		.word	3328
 2526              		.section	.data.__compound_literal.34,"aw"
 2527              		.align	2
 2530              	__compound_literal.34:
 2531 0000 40000000 		.word	64
 2532 0004 0D000000 		.word	13
 2533 0008 01000000 		.word	1
 2534 000c 01000000 		.word	1
 2535              		.section	.data.gemm_5_output,"aw"
 2536              		.align	2
 2539              	gemm_5_output:
 2540 0000 00000000 		.word	0
 2541 0004 1000     		.short	16
 2542 0006 00       		.byte	0
 2543 0007 01       		.byte	1
 2544 0008 01       		.byte	1
 2545 0009 04       		.byte	4
 2546 000a 00       		.byte	0
 2547 000b 00       		.byte	0
 2548 000c 00000000 		.word	__compound_literal.32
 2549 0010 02       		.byte	2
 2550 0011 04       		.byte	4
 2551 0012 00       		.byte	0
 2552 0013 00       		.byte	0
 2553 0014 00000000 		.word	__compound_literal.33
 2554 0018 00000000 		.word	gemm_5_output_array
 2555              		.section	.data.__compound_literal.33,"aw"
 2556              		.align	2
 2559              	__compound_literal.33:
 2560 0000 04000000 		.word	4
 2561 0004 04000000 		.word	4
 2562 0008 34000000 		.word	52
 2563 000c 34000000 		.word	52
 2564              		.section	.data.__compound_literal.32,"aw"
 2565              		.align	2
 2568              	__compound_literal.32:
 2569 0000 01000000 		.word	1
 2570 0004 0D000000 		.word	13
ARM GAS  /tmp/ccAaiSfb.s 			page 60


 2571 0008 01000000 		.word	1
 2572 000c 01000000 		.word	1
 2573              		.section	.data.gemm_5_bias,"aw"
 2574              		.align	2
 2577              	gemm_5_bias:
 2578 0000 00000000 		.word	0
 2579 0004 0F00     		.short	15
 2580 0006 00       		.byte	0
 2581 0007 01       		.byte	1
 2582 0008 01       		.byte	1
 2583 0009 04       		.byte	4
 2584 000a 00       		.byte	0
 2585 000b 00       		.byte	0
 2586 000c 00000000 		.word	__compound_literal.30
 2587 0010 02       		.byte	2
 2588 0011 04       		.byte	4
 2589 0012 00       		.byte	0
 2590 0013 00       		.byte	0
 2591 0014 00000000 		.word	__compound_literal.31
 2592 0018 00000000 		.word	gemm_5_bias_array
 2593              		.section	.data.__compound_literal.31,"aw"
 2594              		.align	2
 2597              	__compound_literal.31:
 2598 0000 04000000 		.word	4
 2599 0004 04000000 		.word	4
 2600 0008 34000000 		.word	52
 2601 000c 34000000 		.word	52
 2602              		.section	.data.__compound_literal.30,"aw"
 2603              		.align	2
 2606              	__compound_literal.30:
 2607 0000 01000000 		.word	1
 2608 0004 0D000000 		.word	13
 2609 0008 01000000 		.word	1
 2610 000c 01000000 		.word	1
 2611              		.section	.data.gemm_4_weights,"aw"
 2612              		.align	2
 2615              	gemm_4_weights:
 2616 0000 00000000 		.word	0
 2617 0004 0E00     		.short	14
 2618 0006 00       		.byte	0
 2619 0007 01       		.byte	1
 2620 0008 01       		.byte	1
 2621 0009 04       		.byte	4
 2622 000a 00       		.byte	0
 2623 000b 00       		.byte	0
 2624 000c 00000000 		.word	__compound_literal.28
 2625 0010 02       		.byte	2
 2626 0011 04       		.byte	4
 2627 0012 00       		.byte	0
 2628 0013 00       		.byte	0
 2629 0014 00000000 		.word	__compound_literal.29
 2630 0018 00000000 		.word	gemm_4_weights_array
 2631              		.section	.data.__compound_literal.29,"aw"
 2632              		.align	2
 2635              	__compound_literal.29:
 2636 0000 04000000 		.word	4
 2637 0004 80010000 		.word	384
ARM GAS  /tmp/ccAaiSfb.s 			page 61


 2638 0008 00600000 		.word	24576
 2639 000c 00600000 		.word	24576
 2640              		.section	.data.__compound_literal.28,"aw"
 2641              		.align	2
 2644              	__compound_literal.28:
 2645 0000 60000000 		.word	96
 2646 0004 40000000 		.word	64
 2647 0008 01000000 		.word	1
 2648 000c 01000000 		.word	1
 2649              		.section	.data.gemm_4_output,"aw"
 2650              		.align	2
 2653              	gemm_4_output:
 2654 0000 00000000 		.word	0
 2655 0004 0D00     		.short	13
 2656 0006 00       		.byte	0
 2657 0007 01       		.byte	1
 2658 0008 01       		.byte	1
 2659 0009 04       		.byte	4
 2660 000a 00       		.byte	0
 2661 000b 00       		.byte	0
 2662 000c 00000000 		.word	__compound_literal.26
 2663 0010 02       		.byte	2
 2664 0011 04       		.byte	4
 2665 0012 00       		.byte	0
 2666 0013 00       		.byte	0
 2667 0014 00000000 		.word	__compound_literal.27
 2668 0018 00000000 		.word	gemm_4_output_array
 2669              		.section	.data.__compound_literal.27,"aw"
 2670              		.align	2
 2673              	__compound_literal.27:
 2674 0000 04000000 		.word	4
 2675 0004 04000000 		.word	4
 2676 0008 00010000 		.word	256
 2677 000c 00010000 		.word	256
 2678              		.section	.data.__compound_literal.26,"aw"
 2679              		.align	2
 2682              	__compound_literal.26:
 2683 0000 01000000 		.word	1
 2684 0004 40000000 		.word	64
 2685 0008 01000000 		.word	1
 2686 000c 01000000 		.word	1
 2687              		.section	.data.gemm_4_bias,"aw"
 2688              		.align	2
 2691              	gemm_4_bias:
 2692 0000 00000000 		.word	0
 2693 0004 0C00     		.short	12
 2694 0006 00       		.byte	0
 2695 0007 01       		.byte	1
 2696 0008 01       		.byte	1
 2697 0009 04       		.byte	4
 2698 000a 00       		.byte	0
 2699 000b 00       		.byte	0
 2700 000c 00000000 		.word	__compound_literal.24
 2701 0010 02       		.byte	2
 2702 0011 04       		.byte	4
 2703 0012 00       		.byte	0
 2704 0013 00       		.byte	0
ARM GAS  /tmp/ccAaiSfb.s 			page 62


 2705 0014 00000000 		.word	__compound_literal.25
 2706 0018 00000000 		.word	gemm_4_bias_array
 2707              		.section	.data.__compound_literal.25,"aw"
 2708              		.align	2
 2711              	__compound_literal.25:
 2712 0000 04000000 		.word	4
 2713 0004 04000000 		.word	4
 2714 0008 00010000 		.word	256
 2715 000c 00010000 		.word	256
 2716              		.section	.data.__compound_literal.24,"aw"
 2717              		.align	2
 2720              	__compound_literal.24:
 2721 0000 01000000 		.word	1
 2722 0004 40000000 		.word	64
 2723 0008 01000000 		.word	1
 2724 000c 01000000 		.word	1
 2725              		.section	.data.gemm_3_weights,"aw"
 2726              		.align	2
 2729              	gemm_3_weights:
 2730 0000 00000000 		.word	0
 2731 0004 0B00     		.short	11
 2732 0006 00       		.byte	0
 2733 0007 01       		.byte	1
 2734 0008 01       		.byte	1
 2735 0009 04       		.byte	4
 2736 000a 00       		.byte	0
 2737 000b 00       		.byte	0
 2738 000c 00000000 		.word	__compound_literal.22
 2739 0010 02       		.byte	2
 2740 0011 04       		.byte	4
 2741 0012 00       		.byte	0
 2742 0013 00       		.byte	0
 2743 0014 00000000 		.word	__compound_literal.23
 2744 0018 00000000 		.word	gemm_3_weights_array
 2745              		.section	.data.__compound_literal.23,"aw"
 2746              		.align	2
 2749              	__compound_literal.23:
 2750 0000 04000000 		.word	4
 2751 0004 00020000 		.word	512
 2752 0008 00C00000 		.word	49152
 2753 000c 00C00000 		.word	49152
 2754              		.section	.data.__compound_literal.22,"aw"
 2755              		.align	2
 2758              	__compound_literal.22:
 2759 0000 80000000 		.word	128
 2760 0004 60000000 		.word	96
 2761 0008 01000000 		.word	1
 2762 000c 01000000 		.word	1
 2763              		.section	.data.gemm_3_output,"aw"
 2764              		.align	2
 2767              	gemm_3_output:
 2768 0000 00000000 		.word	0
 2769 0004 0A00     		.short	10
 2770 0006 00       		.byte	0
 2771 0007 01       		.byte	1
 2772 0008 01       		.byte	1
 2773 0009 04       		.byte	4
ARM GAS  /tmp/ccAaiSfb.s 			page 63


 2774 000a 00       		.byte	0
 2775 000b 00       		.byte	0
 2776 000c 00000000 		.word	__compound_literal.20
 2777 0010 02       		.byte	2
 2778 0011 04       		.byte	4
 2779 0012 00       		.byte	0
 2780 0013 00       		.byte	0
 2781 0014 00000000 		.word	__compound_literal.21
 2782 0018 00000000 		.word	gemm_3_output_array
 2783              		.section	.data.__compound_literal.21,"aw"
 2784              		.align	2
 2787              	__compound_literal.21:
 2788 0000 04000000 		.word	4
 2789 0004 04000000 		.word	4
 2790 0008 80010000 		.word	384
 2791 000c 80010000 		.word	384
 2792              		.section	.data.__compound_literal.20,"aw"
 2793              		.align	2
 2796              	__compound_literal.20:
 2797 0000 01000000 		.word	1
 2798 0004 60000000 		.word	96
 2799 0008 01000000 		.word	1
 2800 000c 01000000 		.word	1
 2801              		.section	.data.gemm_3_bias,"aw"
 2802              		.align	2
 2805              	gemm_3_bias:
 2806 0000 00000000 		.word	0
 2807 0004 0900     		.short	9
 2808 0006 00       		.byte	0
 2809 0007 01       		.byte	1
 2810 0008 01       		.byte	1
 2811 0009 04       		.byte	4
 2812 000a 00       		.byte	0
 2813 000b 00       		.byte	0
 2814 000c 00000000 		.word	__compound_literal.18
 2815 0010 02       		.byte	2
 2816 0011 04       		.byte	4
 2817 0012 00       		.byte	0
 2818 0013 00       		.byte	0
 2819 0014 00000000 		.word	__compound_literal.19
 2820 0018 00000000 		.word	gemm_3_bias_array
 2821              		.section	.data.__compound_literal.19,"aw"
 2822              		.align	2
 2825              	__compound_literal.19:
 2826 0000 04000000 		.word	4
 2827 0004 04000000 		.word	4
 2828 0008 80010000 		.word	384
 2829 000c 80010000 		.word	384
 2830              		.section	.data.__compound_literal.18,"aw"
 2831              		.align	2
 2834              	__compound_literal.18:
 2835 0000 01000000 		.word	1
 2836 0004 60000000 		.word	96
 2837 0008 01000000 		.word	1
 2838 000c 01000000 		.word	1
 2839              		.section	.data.gemm_2_weights,"aw"
 2840              		.align	2
ARM GAS  /tmp/ccAaiSfb.s 			page 64


 2843              	gemm_2_weights:
 2844 0000 00000000 		.word	0
 2845 0004 0800     		.short	8
 2846 0006 00       		.byte	0
 2847 0007 01       		.byte	1
 2848 0008 01       		.byte	1
 2849 0009 04       		.byte	4
 2850 000a 00       		.byte	0
 2851 000b 00       		.byte	0
 2852 000c 00000000 		.word	__compound_literal.16
 2853 0010 02       		.byte	2
 2854 0011 04       		.byte	4
 2855 0012 00       		.byte	0
 2856 0013 00       		.byte	0
 2857 0014 00000000 		.word	__compound_literal.17
 2858 0018 00000000 		.word	gemm_2_weights_array
 2859              		.section	.data.__compound_literal.17,"aw"
 2860              		.align	2
 2863              	__compound_literal.17:
 2864 0000 04000000 		.word	4
 2865 0004 00030000 		.word	768
 2866 0008 00800100 		.word	98304
 2867 000c 00800100 		.word	98304
 2868              		.section	.data.__compound_literal.16,"aw"
 2869              		.align	2
 2872              	__compound_literal.16:
 2873 0000 C0000000 		.word	192
 2874 0004 80000000 		.word	128
 2875 0008 01000000 		.word	1
 2876 000c 01000000 		.word	1
 2877              		.section	.data.gemm_2_output,"aw"
 2878              		.align	2
 2881              	gemm_2_output:
 2882 0000 00000000 		.word	0
 2883 0004 0700     		.short	7
 2884 0006 00       		.byte	0
 2885 0007 01       		.byte	1
 2886 0008 01       		.byte	1
 2887 0009 04       		.byte	4
 2888 000a 00       		.byte	0
 2889 000b 00       		.byte	0
 2890 000c 00000000 		.word	__compound_literal.14
 2891 0010 02       		.byte	2
 2892 0011 04       		.byte	4
 2893 0012 00       		.byte	0
 2894 0013 00       		.byte	0
 2895 0014 00000000 		.word	__compound_literal.15
 2896 0018 00000000 		.word	gemm_2_output_array
 2897              		.section	.data.__compound_literal.15,"aw"
 2898              		.align	2
 2901              	__compound_literal.15:
 2902 0000 04000000 		.word	4
 2903 0004 04000000 		.word	4
 2904 0008 00020000 		.word	512
 2905 000c 00020000 		.word	512
 2906              		.section	.data.__compound_literal.14,"aw"
 2907              		.align	2
ARM GAS  /tmp/ccAaiSfb.s 			page 65


 2910              	__compound_literal.14:
 2911 0000 01000000 		.word	1
 2912 0004 80000000 		.word	128
 2913 0008 01000000 		.word	1
 2914 000c 01000000 		.word	1
 2915              		.section	.data.gemm_2_bias,"aw"
 2916              		.align	2
 2919              	gemm_2_bias:
 2920 0000 00000000 		.word	0
 2921 0004 0600     		.short	6
 2922 0006 00       		.byte	0
 2923 0007 01       		.byte	1
 2924 0008 01       		.byte	1
 2925 0009 04       		.byte	4
 2926 000a 00       		.byte	0
 2927 000b 00       		.byte	0
 2928 000c 00000000 		.word	__compound_literal.12
 2929 0010 02       		.byte	2
 2930 0011 04       		.byte	4
 2931 0012 00       		.byte	0
 2932 0013 00       		.byte	0
 2933 0014 00000000 		.word	__compound_literal.13
 2934 0018 00000000 		.word	gemm_2_bias_array
 2935              		.section	.data.__compound_literal.13,"aw"
 2936              		.align	2
 2939              	__compound_literal.13:
 2940 0000 04000000 		.word	4
 2941 0004 04000000 		.word	4
 2942 0008 00020000 		.word	512
 2943 000c 00020000 		.word	512
 2944              		.section	.data.__compound_literal.12,"aw"
 2945              		.align	2
 2948              	__compound_literal.12:
 2949 0000 01000000 		.word	1
 2950 0004 80000000 		.word	128
 2951 0008 01000000 		.word	1
 2952 000c 01000000 		.word	1
 2953              		.section	.data.gemm_1_weights,"aw"
 2954              		.align	2
 2957              	gemm_1_weights:
 2958 0000 00000000 		.word	0
 2959 0004 0500     		.short	5
 2960 0006 00       		.byte	0
 2961 0007 01       		.byte	1
 2962 0008 01       		.byte	1
 2963 0009 04       		.byte	4
 2964 000a 00       		.byte	0
 2965 000b 00       		.byte	0
 2966 000c 00000000 		.word	__compound_literal.10
 2967 0010 02       		.byte	2
 2968 0011 04       		.byte	4
 2969 0012 00       		.byte	0
 2970 0013 00       		.byte	0
 2971 0014 00000000 		.word	__compound_literal.11
 2972 0018 00000000 		.word	gemm_1_weights_array
 2973              		.section	.data.__compound_literal.11,"aw"
 2974              		.align	2
ARM GAS  /tmp/ccAaiSfb.s 			page 66


 2977              	__compound_literal.11:
 2978 0000 04000000 		.word	4
 2979 0004 00040000 		.word	1024
 2980 0008 00000300 		.word	196608
 2981 000c 00000300 		.word	196608
 2982              		.section	.data.__compound_literal.10,"aw"
 2983              		.align	2
 2986              	__compound_literal.10:
 2987 0000 00010000 		.word	256
 2988 0004 C0000000 		.word	192
 2989 0008 01000000 		.word	1
 2990 000c 01000000 		.word	1
 2991              		.section	.data.gemm_1_output,"aw"
 2992              		.align	2
 2995              	gemm_1_output:
 2996 0000 00000000 		.word	0
 2997 0004 0400     		.short	4
 2998 0006 00       		.byte	0
 2999 0007 01       		.byte	1
 3000 0008 01       		.byte	1
 3001 0009 04       		.byte	4
 3002 000a 00       		.byte	0
 3003 000b 00       		.byte	0
 3004 000c 00000000 		.word	__compound_literal.8
 3005 0010 02       		.byte	2
 3006 0011 04       		.byte	4
 3007 0012 00       		.byte	0
 3008 0013 00       		.byte	0
 3009 0014 00000000 		.word	__compound_literal.9
 3010 0018 00000000 		.word	gemm_1_output_array
 3011              		.section	.data.__compound_literal.9,"aw"
 3012              		.align	2
 3015              	__compound_literal.9:
 3016 0000 04000000 		.word	4
 3017 0004 04000000 		.word	4
 3018 0008 00030000 		.word	768
 3019 000c 00030000 		.word	768
 3020              		.section	.data.__compound_literal.8,"aw"
 3021              		.align	2
 3024              	__compound_literal.8:
 3025 0000 01000000 		.word	1
 3026 0004 C0000000 		.word	192
 3027 0008 01000000 		.word	1
 3028 000c 01000000 		.word	1
 3029              		.section	.data.gemm_1_bias,"aw"
 3030              		.align	2
 3033              	gemm_1_bias:
 3034 0000 00000000 		.word	0
 3035 0004 0300     		.short	3
 3036 0006 00       		.byte	0
 3037 0007 01       		.byte	1
 3038 0008 01       		.byte	1
 3039 0009 04       		.byte	4
 3040 000a 00       		.byte	0
 3041 000b 00       		.byte	0
 3042 000c 00000000 		.word	__compound_literal.6
 3043 0010 02       		.byte	2
ARM GAS  /tmp/ccAaiSfb.s 			page 67


 3044 0011 04       		.byte	4
 3045 0012 00       		.byte	0
 3046 0013 00       		.byte	0
 3047 0014 00000000 		.word	__compound_literal.7
 3048 0018 00000000 		.word	gemm_1_bias_array
 3049              		.section	.data.__compound_literal.7,"aw"
 3050              		.align	2
 3053              	__compound_literal.7:
 3054 0000 04000000 		.word	4
 3055 0004 04000000 		.word	4
 3056 0008 00030000 		.word	768
 3057 000c 00030000 		.word	768
 3058              		.section	.data.__compound_literal.6,"aw"
 3059              		.align	2
 3062              	__compound_literal.6:
 3063 0000 01000000 		.word	1
 3064 0004 C0000000 		.word	192
 3065 0008 01000000 		.word	1
 3066 000c 01000000 		.word	1
 3067              		.section	.data.gemm_0_weights,"aw"
 3068              		.align	2
 3071              	gemm_0_weights:
 3072 0000 00000000 		.word	0
 3073 0004 0200     		.short	2
 3074 0006 00       		.byte	0
 3075 0007 01       		.byte	1
 3076 0008 01       		.byte	1
 3077 0009 04       		.byte	4
 3078 000a 00       		.byte	0
 3079 000b 00       		.byte	0
 3080 000c 00000000 		.word	__compound_literal.4
 3081 0010 02       		.byte	2
 3082 0011 04       		.byte	4
 3083 0012 00       		.byte	0
 3084 0013 00       		.byte	0
 3085 0014 00000000 		.word	__compound_literal.5
 3086 0018 00000000 		.word	gemm_0_weights_array
 3087              		.section	.data.__compound_literal.5,"aw"
 3088              		.align	2
 3091              	__compound_literal.5:
 3092 0000 04000000 		.word	4
 3093 0004 28000000 		.word	40
 3094 0008 00280000 		.word	10240
 3095 000c 00280000 		.word	10240
 3096              		.section	.data.__compound_literal.4,"aw"
 3097              		.align	2
 3100              	__compound_literal.4:
 3101 0000 0A000000 		.word	10
 3102 0004 00010000 		.word	256
 3103 0008 01000000 		.word	1
 3104 000c 01000000 		.word	1
 3105              		.section	.data.gemm_0_output,"aw"
 3106              		.align	2
 3109              	gemm_0_output:
 3110 0000 00000000 		.word	0
 3111 0004 0100     		.short	1
 3112 0006 00       		.byte	0
ARM GAS  /tmp/ccAaiSfb.s 			page 68


 3113 0007 01       		.byte	1
 3114 0008 01       		.byte	1
 3115 0009 04       		.byte	4
 3116 000a 00       		.byte	0
 3117 000b 00       		.byte	0
 3118 000c 00000000 		.word	__compound_literal.2
 3119 0010 02       		.byte	2
 3120 0011 04       		.byte	4
 3121 0012 00       		.byte	0
 3122 0013 00       		.byte	0
 3123 0014 00000000 		.word	__compound_literal.3
 3124 0018 00000000 		.word	gemm_0_output_array
 3125              		.section	.data.__compound_literal.3,"aw"
 3126              		.align	2
 3129              	__compound_literal.3:
 3130 0000 04000000 		.word	4
 3131 0004 04000000 		.word	4
 3132 0008 00040000 		.word	1024
 3133 000c 00040000 		.word	1024
 3134              		.section	.data.__compound_literal.2,"aw"
 3135              		.align	2
 3138              	__compound_literal.2:
 3139 0000 01000000 		.word	1
 3140 0004 00010000 		.word	256
 3141 0008 01000000 		.word	1
 3142 000c 01000000 		.word	1
 3143              		.section	.data.gemm_0_bias,"aw"
 3144              		.align	2
 3147              	gemm_0_bias:
 3148 0000 00000000 		.word	0
 3149 0004 0000     		.short	0
 3150 0006 00       		.byte	0
 3151 0007 01       		.byte	1
 3152 0008 01       		.byte	1
 3153 0009 04       		.byte	4
 3154 000a 00       		.byte	0
 3155 000b 00       		.byte	0
 3156 000c 00000000 		.word	__compound_literal.0
 3157 0010 02       		.byte	2
 3158 0011 04       		.byte	4
 3159 0012 00       		.byte	0
 3160 0013 00       		.byte	0
 3161 0014 00000000 		.word	__compound_literal.1
 3162 0018 00000000 		.word	gemm_0_bias_array
 3163              		.section	.data.__compound_literal.1,"aw"
 3164              		.align	2
 3167              	__compound_literal.1:
 3168 0000 04000000 		.word	4
 3169 0004 04000000 		.word	4
 3170 0008 00040000 		.word	1024
 3171 000c 00040000 		.word	1024
 3172              		.section	.data.__compound_literal.0,"aw"
 3173              		.align	2
 3176              	__compound_literal.0:
 3177 0000 01000000 		.word	1
 3178 0004 00010000 		.word	256
 3179 0008 01000000 		.word	1
ARM GAS  /tmp/ccAaiSfb.s 			page 69


 3180 000c 01000000 		.word	1
 3181              		.section	.data.gemm_5_bias_array,"aw"
 3182              		.align	2
 3185              	gemm_5_bias_array:
 3186 0000 40108200 		.word	8523840
 3187 0004 0D000000 		.word	13
 3188 0008 00000000 		.word	0
 3189 000c 00000000 		.word	0
 3190              		.section	.data.gemm_5_weights_array,"aw"
 3191              		.align	2
 3194              	gemm_5_weights_array:
 3195 0000 40108200 		.word	8523840
 3196 0004 40030000 		.word	832
 3197 0008 00000000 		.word	0
 3198 000c 00000000 		.word	0
 3199              		.section	.data.gemm_4_bias_array,"aw"
 3200              		.align	2
 3203              	gemm_4_bias_array:
 3204 0000 40108200 		.word	8523840
 3205 0004 40000000 		.word	64
 3206 0008 00000000 		.word	0
 3207 000c 00000000 		.word	0
 3208              		.section	.data.gemm_4_weights_array,"aw"
 3209              		.align	2
 3212              	gemm_4_weights_array:
 3213 0000 40108200 		.word	8523840
 3214 0004 00180000 		.word	6144
 3215 0008 00000000 		.word	0
 3216 000c 00000000 		.word	0
 3217              		.section	.data.gemm_3_bias_array,"aw"
 3218              		.align	2
 3221              	gemm_3_bias_array:
 3222 0000 40108200 		.word	8523840
 3223 0004 60000000 		.word	96
 3224 0008 00000000 		.word	0
 3225 000c 00000000 		.word	0
 3226              		.section	.data.gemm_3_weights_array,"aw"
 3227              		.align	2
 3230              	gemm_3_weights_array:
 3231 0000 40108200 		.word	8523840
 3232 0004 00300000 		.word	12288
 3233 0008 00000000 		.word	0
 3234 000c 00000000 		.word	0
 3235              		.section	.data.gemm_2_bias_array,"aw"
 3236              		.align	2
 3239              	gemm_2_bias_array:
 3240 0000 40108200 		.word	8523840
 3241 0004 80000000 		.word	128
 3242 0008 00000000 		.word	0
 3243 000c 00000000 		.word	0
 3244              		.section	.data.gemm_2_weights_array,"aw"
 3245              		.align	2
 3248              	gemm_2_weights_array:
 3249 0000 40108200 		.word	8523840
 3250 0004 00600000 		.word	24576
 3251 0008 00000000 		.word	0
 3252 000c 00000000 		.word	0
ARM GAS  /tmp/ccAaiSfb.s 			page 70


 3253              		.section	.data.gemm_1_bias_array,"aw"
 3254              		.align	2
 3257              	gemm_1_bias_array:
 3258 0000 40108200 		.word	8523840
 3259 0004 C0000000 		.word	192
 3260 0008 00000000 		.word	0
 3261 000c 00000000 		.word	0
 3262              		.section	.data.gemm_1_weights_array,"aw"
 3263              		.align	2
 3266              	gemm_1_weights_array:
 3267 0000 40108200 		.word	8523840
 3268 0004 00C00000 		.word	49152
 3269 0008 00000000 		.word	0
 3270 000c 00000000 		.word	0
 3271              		.section	.data.gemm_0_bias_array,"aw"
 3272              		.align	2
 3275              	gemm_0_bias_array:
 3276 0000 40108200 		.word	8523840
 3277 0004 00010000 		.word	256
 3278 0008 00000000 		.word	0
 3279 000c 00000000 		.word	0
 3280              		.section	.data.gemm_0_weights_array,"aw"
 3281              		.align	2
 3284              	gemm_0_weights_array:
 3285 0000 40108200 		.word	8523840
 3286 0004 000A0000 		.word	2560
 3287 0008 00000000 		.word	0
 3288 000c 00000000 		.word	0
 3289              		.section	.data.nl_6_output_array,"aw"
 3290              		.align	2
 3293              	nl_6_output_array:
 3294 0000 40108208 		.word	142741568
 3295 0004 0D000000 		.word	13
 3296 0008 00000000 		.word	0
 3297 000c 00000000 		.word	0
 3298              		.section	.data.gemm_5_output_array,"aw"
 3299              		.align	2
 3302              	gemm_5_output_array:
 3303 0000 40108200 		.word	8523840
 3304 0004 0D000000 		.word	13
 3305 0008 00000000 		.word	0
 3306 000c 00000000 		.word	0
 3307              		.section	.data.nl_4_nl_output_array,"aw"
 3308              		.align	2
 3311              	nl_4_nl_output_array:
 3312 0000 40108200 		.word	8523840
 3313 0004 40000000 		.word	64
 3314 0008 00000000 		.word	0
 3315 000c 00000000 		.word	0
 3316              		.section	.data.gemm_4_output_array,"aw"
 3317              		.align	2
 3320              	gemm_4_output_array:
 3321 0000 40108200 		.word	8523840
 3322 0004 40000000 		.word	64
 3323 0008 00000000 		.word	0
 3324 000c 00000000 		.word	0
 3325              		.section	.data.nl_3_nl_output_array,"aw"
ARM GAS  /tmp/ccAaiSfb.s 			page 71


 3326              		.align	2
 3329              	nl_3_nl_output_array:
 3330 0000 40108200 		.word	8523840
 3331 0004 60000000 		.word	96
 3332 0008 00000000 		.word	0
 3333 000c 00000000 		.word	0
 3334              		.section	.data.gemm_3_output_array,"aw"
 3335              		.align	2
 3338              	gemm_3_output_array:
 3339 0000 40108200 		.word	8523840
 3340 0004 60000000 		.word	96
 3341 0008 00000000 		.word	0
 3342 000c 00000000 		.word	0
 3343              		.section	.data.nl_2_nl_output_array,"aw"
 3344              		.align	2
 3347              	nl_2_nl_output_array:
 3348 0000 40108200 		.word	8523840
 3349 0004 80000000 		.word	128
 3350 0008 00000000 		.word	0
 3351 000c 00000000 		.word	0
 3352              		.section	.data.gemm_2_output_array,"aw"
 3353              		.align	2
 3356              	gemm_2_output_array:
 3357 0000 40108200 		.word	8523840
 3358 0004 80000000 		.word	128
 3359 0008 00000000 		.word	0
 3360 000c 00000000 		.word	0
 3361              		.section	.data.nl_1_nl_output_array,"aw"
 3362              		.align	2
 3365              	nl_1_nl_output_array:
 3366 0000 40108200 		.word	8523840
 3367 0004 C0000000 		.word	192
 3368 0008 00000000 		.word	0
 3369 000c 00000000 		.word	0
 3370              		.section	.data.gemm_1_output_array,"aw"
 3371              		.align	2
 3374              	gemm_1_output_array:
 3375 0000 40108200 		.word	8523840
 3376 0004 C0000000 		.word	192
 3377 0008 00000000 		.word	0
 3378 000c 00000000 		.word	0
 3379              		.section	.data.nl_0_nl_output_array,"aw"
 3380              		.align	2
 3383              	nl_0_nl_output_array:
 3384 0000 40108200 		.word	8523840
 3385 0004 00010000 		.word	256
 3386 0008 00000000 		.word	0
 3387 000c 00000000 		.word	0
 3388              		.section	.data.gemm_0_output_array,"aw"
 3389              		.align	2
 3392              	gemm_0_output_array:
 3393 0000 40108200 		.word	8523840
 3394 0004 00010000 		.word	256
 3395 0008 00000000 		.word	0
 3396 000c 00000000 		.word	0
 3397              		.section	.data.serving_default_keras_tensor_1030_output_array,"aw"
 3398              		.align	2
ARM GAS  /tmp/ccAaiSfb.s 			page 72


 3401              	serving_default_keras_tensor_1030_output_array:
 3402 0000 40108208 		.word	142741568
 3403 0004 0A000000 		.word	10
 3404 0008 00000000 		.word	0
 3405 000c 00000000 		.word	0
 3406              		.section	.bss.g_network_weights_map,"aw",%nobits
 3407              		.align	2
 3410              	g_network_weights_map:
 3411 0000 00000000 		.space	4
 3412              		.section	.bss.g_network_activations_map,"aw",%nobits
 3413              		.align	2
 3416              	g_network_activations_map:
 3417 0000 00000000 		.space	4
 3418              		.text
 3419              	.Letext0:
 3420              		.file 2 "/opt/st/stm32cubeclt_1.20.0/GNU-tools-for-STM32/arm-none-eabi/include/machine/_default_ty
 3421              		.file 3 "/opt/st/stm32cubeclt_1.20.0/GNU-tools-for-STM32/arm-none-eabi/include/sys/_stdint.h"
 3422              		.file 4 "Middlewares/ST/AI/Inc/ai_platform.h"
 3423              		.file 5 "Middlewares/ST/AI/Inc/datatypes_network.h"
 3424              		.file 6 "Middlewares/ST/AI/Inc/ai_datatypes_format.h"
 3425              		.file 7 "Middlewares/ST/AI/Inc/ai_platform_interface.h"
 3426              		.file 8 "Middlewares/ST/AI/Inc/core_common.h"
 3427              		.file 9 "Middlewares/ST/AI/Inc/core_datatypes.h"
 3428              		.file 10 "Middlewares/ST/AI/Inc/layers_common.h"
 3429              		.file 11 "Middlewares/ST/AI/Inc/layers_nl.h"
 3430              		.file 12 "Middlewares/ST/AI/Inc/layers_conv2d.h"
 3431              		.file 13 "X-CUBE-AI/App/network_data.h"
 3432              		.file 14 "<built-in>"
ARM GAS  /tmp/ccAaiSfb.s 			page 73

